
bomb:     file format elf32-i386


Disassembly of section .init:

08048804 <_init>:
 8048804:	55                   	push   %ebp
 8048805:	89 e5                	mov    %esp,%ebp
 8048807:	53                   	push   %ebx
 8048808:	83 ec 04             	sub    $0x4,%esp
 804880b:	e8 00 00 00 00       	call   8048810 <_init+0xc>
 8048810:	5b                   	pop    %ebx
 8048811:	81 c3 e4 37 00 00    	add    $0x37e4,%ebx
 8048817:	8b 93 fc ff ff ff    	mov    -0x4(%ebx),%edx
 804881d:	85 d2                	test   %edx,%edx
 804881f:	74 05                	je     8048826 <_init+0x22>
 8048821:	e8 5e 00 00 00       	call   8048884 <__gmon_start__@plt>
 8048826:	e8 85 02 00 00       	call   8048ab0 <frame_dummy>
 804882b:	e8 30 1b 00 00       	call   804a360 <__do_global_ctors_aux>
 8048830:	58                   	pop    %eax
 8048831:	5b                   	pop    %ebx
 8048832:	c9                   	leave  
 8048833:	c3                   	ret    

Disassembly of section .plt:

08048834 <__errno_location@plt-0x10>:
 8048834:	ff 35 f8 bf 04 08    	pushl  0x804bff8
 804883a:	ff 25 fc bf 04 08    	jmp    *0x804bffc
 8048840:	00 00                	add    %al,(%eax)
	...

08048844 <__errno_location@plt>:
 8048844:	ff 25 00 c0 04 08    	jmp    *0x804c000
 804884a:	68 00 00 00 00       	push   $0x0
 804884f:	e9 e0 ff ff ff       	jmp    8048834 <_init+0x30>

08048854 <connect@plt>:
 8048854:	ff 25 04 c0 04 08    	jmp    *0x804c004
 804885a:	68 08 00 00 00       	push   $0x8
 804885f:	e9 d0 ff ff ff       	jmp    8048834 <_init+0x30>

08048864 <__fprintf_chk@plt>:
 8048864:	ff 25 08 c0 04 08    	jmp    *0x804c008
 804886a:	68 10 00 00 00       	push   $0x10
 804886f:	e9 c0 ff ff ff       	jmp    8048834 <_init+0x30>

08048874 <signal@plt>:
 8048874:	ff 25 0c c0 04 08    	jmp    *0x804c00c
 804887a:	68 18 00 00 00       	push   $0x18
 804887f:	e9 b0 ff ff ff       	jmp    8048834 <_init+0x30>

08048884 <__gmon_start__@plt>:
 8048884:	ff 25 10 c0 04 08    	jmp    *0x804c010
 804888a:	68 20 00 00 00       	push   $0x20
 804888f:	e9 a0 ff ff ff       	jmp    8048834 <_init+0x30>

08048894 <__isoc99_sscanf@plt>:
 8048894:	ff 25 14 c0 04 08    	jmp    *0x804c014
 804889a:	68 28 00 00 00       	push   $0x28
 804889f:	e9 90 ff ff ff       	jmp    8048834 <_init+0x30>

080488a4 <__printf_chk@plt>:
 80488a4:	ff 25 18 c0 04 08    	jmp    *0x804c018
 80488aa:	68 30 00 00 00       	push   $0x30
 80488af:	e9 80 ff ff ff       	jmp    8048834 <_init+0x30>

080488b4 <getenv@plt>:
 80488b4:	ff 25 1c c0 04 08    	jmp    *0x804c01c
 80488ba:	68 38 00 00 00       	push   $0x38
 80488bf:	e9 70 ff ff ff       	jmp    8048834 <_init+0x30>

080488c4 <write@plt>:
 80488c4:	ff 25 20 c0 04 08    	jmp    *0x804c020
 80488ca:	68 40 00 00 00       	push   $0x40
 80488cf:	e9 60 ff ff ff       	jmp    8048834 <_init+0x30>

080488d4 <fgets@plt>:
 80488d4:	ff 25 24 c0 04 08    	jmp    *0x804c024
 80488da:	68 48 00 00 00       	push   $0x48
 80488df:	e9 50 ff ff ff       	jmp    8048834 <_init+0x30>

080488e4 <__libc_start_main@plt>:
 80488e4:	ff 25 28 c0 04 08    	jmp    *0x804c028
 80488ea:	68 50 00 00 00       	push   $0x50
 80488ef:	e9 40 ff ff ff       	jmp    8048834 <_init+0x30>

080488f4 <__memcpy_chk@plt>:
 80488f4:	ff 25 2c c0 04 08    	jmp    *0x804c02c
 80488fa:	68 58 00 00 00       	push   $0x58
 80488ff:	e9 30 ff ff ff       	jmp    8048834 <_init+0x30>

08048904 <read@plt>:
 8048904:	ff 25 30 c0 04 08    	jmp    *0x804c030
 804890a:	68 60 00 00 00       	push   $0x60
 804890f:	e9 20 ff ff ff       	jmp    8048834 <_init+0x30>

08048914 <strtol@plt>:
 8048914:	ff 25 34 c0 04 08    	jmp    *0x804c034
 804891a:	68 68 00 00 00       	push   $0x68
 804891f:	e9 10 ff ff ff       	jmp    8048834 <_init+0x30>

08048924 <fflush@plt>:
 8048924:	ff 25 38 c0 04 08    	jmp    *0x804c038
 804892a:	68 70 00 00 00       	push   $0x70
 804892f:	e9 00 ff ff ff       	jmp    8048834 <_init+0x30>

08048934 <socket@plt>:
 8048934:	ff 25 3c c0 04 08    	jmp    *0x804c03c
 804893a:	68 78 00 00 00       	push   $0x78
 804893f:	e9 f0 fe ff ff       	jmp    8048834 <_init+0x30>

08048944 <__ctype_b_loc@plt>:
 8048944:	ff 25 40 c0 04 08    	jmp    *0x804c040
 804894a:	68 80 00 00 00       	push   $0x80
 804894f:	e9 e0 fe ff ff       	jmp    8048834 <_init+0x30>

08048954 <fopen@plt>:
 8048954:	ff 25 44 c0 04 08    	jmp    *0x804c044
 804895a:	68 88 00 00 00       	push   $0x88
 804895f:	e9 d0 fe ff ff       	jmp    8048834 <_init+0x30>

08048964 <alarm@plt>:
 8048964:	ff 25 48 c0 04 08    	jmp    *0x804c048
 804896a:	68 90 00 00 00       	push   $0x90
 804896f:	e9 c0 fe ff ff       	jmp    8048834 <_init+0x30>

08048974 <strcpy@plt>:
 8048974:	ff 25 4c c0 04 08    	jmp    *0x804c04c
 804897a:	68 98 00 00 00       	push   $0x98
 804897f:	e9 b0 fe ff ff       	jmp    8048834 <_init+0x30>

08048984 <strcasecmp@plt>:
 8048984:	ff 25 50 c0 04 08    	jmp    *0x804c050
 804898a:	68 a0 00 00 00       	push   $0xa0
 804898f:	e9 a0 fe ff ff       	jmp    8048834 <_init+0x30>

08048994 <close@plt>:
 8048994:	ff 25 54 c0 04 08    	jmp    *0x804c054
 804899a:	68 a8 00 00 00       	push   $0xa8
 804899f:	e9 90 fe ff ff       	jmp    8048834 <_init+0x30>

080489a4 <__stack_chk_fail@plt>:
 80489a4:	ff 25 58 c0 04 08    	jmp    *0x804c058
 80489aa:	68 b0 00 00 00       	push   $0xb0
 80489af:	e9 80 fe ff ff       	jmp    8048834 <_init+0x30>

080489b4 <gethostname@plt>:
 80489b4:	ff 25 5c c0 04 08    	jmp    *0x804c05c
 80489ba:	68 b8 00 00 00       	push   $0xb8
 80489bf:	e9 70 fe ff ff       	jmp    8048834 <_init+0x30>

080489c4 <sleep@plt>:
 80489c4:	ff 25 60 c0 04 08    	jmp    *0x804c060
 80489ca:	68 c0 00 00 00       	push   $0xc0
 80489cf:	e9 60 fe ff ff       	jmp    8048834 <_init+0x30>

080489d4 <__sprintf_chk@plt>:
 80489d4:	ff 25 64 c0 04 08    	jmp    *0x804c064
 80489da:	68 c8 00 00 00       	push   $0xc8
 80489df:	e9 50 fe ff ff       	jmp    8048834 <_init+0x30>

080489e4 <__memmove_chk@plt>:
 80489e4:	ff 25 68 c0 04 08    	jmp    *0x804c068
 80489ea:	68 d0 00 00 00       	push   $0xd0
 80489ef:	e9 40 fe ff ff       	jmp    8048834 <_init+0x30>

080489f4 <gethostbyname@plt>:
 80489f4:	ff 25 6c c0 04 08    	jmp    *0x804c06c
 80489fa:	68 d8 00 00 00       	push   $0xd8
 80489ff:	e9 30 fe ff ff       	jmp    8048834 <_init+0x30>

08048a04 <exit@plt>:
 8048a04:	ff 25 70 c0 04 08    	jmp    *0x804c070
 8048a0a:	68 e0 00 00 00       	push   $0xe0
 8048a0f:	e9 20 fe ff ff       	jmp    8048834 <_init+0x30>

Disassembly of section .text:

08048a20 <_start>:
 8048a20:	31 ed                	xor    %ebp,%ebp
 8048a22:	5e                   	pop    %esi
 8048a23:	89 e1                	mov    %esp,%ecx
 8048a25:	83 e4 f0             	and    $0xfffffff0,%esp
 8048a28:	50                   	push   %eax
 8048a29:	54                   	push   %esp
 8048a2a:	52                   	push   %edx
 8048a2b:	68 f0 a2 04 08       	push   $0x804a2f0
 8048a30:	68 00 a3 04 08       	push   $0x804a300
 8048a35:	51                   	push   %ecx
 8048a36:	56                   	push   %esi
 8048a37:	68 d4 8a 04 08       	push   $0x8048ad4
 8048a3c:	e8 a3 fe ff ff       	call   80488e4 <__libc_start_main@plt>
 8048a41:	f4                   	hlt    
 8048a42:	90                   	nop
 8048a43:	90                   	nop
 8048a44:	90                   	nop
 8048a45:	90                   	nop
 8048a46:	90                   	nop
 8048a47:	90                   	nop
 8048a48:	90                   	nop
 8048a49:	90                   	nop
 8048a4a:	90                   	nop
 8048a4b:	90                   	nop
 8048a4c:	90                   	nop
 8048a4d:	90                   	nop
 8048a4e:	90                   	nop
 8048a4f:	90                   	nop

08048a50 <__do_global_dtors_aux>:
 8048a50:	55                   	push   %ebp
 8048a51:	89 e5                	mov    %esp,%ebp
 8048a53:	53                   	push   %ebx
 8048a54:	83 ec 04             	sub    $0x4,%esp
 8048a57:	80 3d e4 c7 04 08 00 	cmpb   $0x0,0x804c7e4
 8048a5e:	75 3f                	jne    8048a9f <__do_global_dtors_aux+0x4f>
 8048a60:	a1 e8 c7 04 08       	mov    0x804c7e8,%eax
 8048a65:	bb 18 bf 04 08       	mov    $0x804bf18,%ebx
 8048a6a:	81 eb 14 bf 04 08    	sub    $0x804bf14,%ebx
 8048a70:	c1 fb 02             	sar    $0x2,%ebx
 8048a73:	83 eb 01             	sub    $0x1,%ebx
 8048a76:	39 d8                	cmp    %ebx,%eax
 8048a78:	73 1e                	jae    8048a98 <__do_global_dtors_aux+0x48>
 8048a7a:	8d b6 00 00 00 00    	lea    0x0(%esi),%esi
 8048a80:	83 c0 01             	add    $0x1,%eax
 8048a83:	a3 e8 c7 04 08       	mov    %eax,0x804c7e8
 8048a88:	ff 14 85 14 bf 04 08 	call   *0x804bf14(,%eax,4)
 8048a8f:	a1 e8 c7 04 08       	mov    0x804c7e8,%eax
 8048a94:	39 d8                	cmp    %ebx,%eax
 8048a96:	72 e8                	jb     8048a80 <__do_global_dtors_aux+0x30>
 8048a98:	c6 05 e4 c7 04 08 01 	movb   $0x1,0x804c7e4
 8048a9f:	83 c4 04             	add    $0x4,%esp
 8048aa2:	5b                   	pop    %ebx
 8048aa3:	5d                   	pop    %ebp
 8048aa4:	c3                   	ret    
 8048aa5:	8d 74 26 00          	lea    0x0(%esi,%eiz,1),%esi
 8048aa9:	8d bc 27 00 00 00 00 	lea    0x0(%edi,%eiz,1),%edi

08048ab0 <frame_dummy>:
 8048ab0:	55                   	push   %ebp
 8048ab1:	89 e5                	mov    %esp,%ebp
 8048ab3:	83 ec 18             	sub    $0x18,%esp
 8048ab6:	a1 1c bf 04 08       	mov    0x804bf1c,%eax
 8048abb:	85 c0                	test   %eax,%eax
 8048abd:	74 12                	je     8048ad1 <frame_dummy+0x21>
 8048abf:	b8 00 00 00 00       	mov    $0x0,%eax
 8048ac4:	85 c0                	test   %eax,%eax
 8048ac6:	74 09                	je     8048ad1 <frame_dummy+0x21>
 8048ac8:	c7 04 24 1c bf 04 08 	movl   $0x804bf1c,(%esp)
 8048acf:	ff d0                	call   *%eax
 8048ad1:	c9                   	leave  
 8048ad2:	c3                   	ret    
 8048ad3:	90                   	nop

08048ad4 <main>:
 8048ad4:	55                   	push   %ebp
 8048ad5:	89 e5                	mov    %esp,%ebp
 8048ad7:	83 e4 f0             	and    $0xfffffff0,%esp
 8048ada:	56                   	push   %esi
 8048adb:	53                   	push   %ebx
 8048adc:	83 ec 18             	sub    $0x18,%esp
 8048adf:	8b 45 08             	mov    0x8(%ebp),%eax
 8048ae2:	8b 75 0c             	mov    0xc(%ebp),%esi
 8048ae5:	83 f8 01             	cmp    $0x1,%eax
 8048ae8:	75 0c                	jne    8048af6 <main+0x22>
 8048aea:	a1 c4 c7 04 08       	mov    0x804c7c4,%eax
 8048aef:	a3 f0 c7 04 08       	mov    %eax,0x804c7f0
 8048af4:	eb 75                	jmp    8048b6b <main+0x97>
 8048af6:	83 f8 02             	cmp    $0x2,%eax
 8048af9:	75 4a                	jne    8048b45 <main+0x71>
 8048afb:	8d 5e 04             	lea    0x4(%esi),%ebx
 8048afe:	c7 44 24 04 c8 a3 04 	movl   $0x804a3c8,0x4(%esp)
 8048b05:	08 
 8048b06:	8b 03                	mov    (%ebx),%eax
 8048b08:	89 04 24             	mov    %eax,(%esp)
 8048b0b:	e8 44 fe ff ff       	call   8048954 <fopen@plt>
 8048b10:	a3 f0 c7 04 08       	mov    %eax,0x804c7f0
 8048b15:	85 c0                	test   %eax,%eax
 8048b17:	75 52                	jne    8048b6b <main+0x97>
 8048b19:	8b 03                	mov    (%ebx),%eax
 8048b1b:	89 44 24 0c          	mov    %eax,0xc(%esp)
 8048b1f:	8b 06                	mov    (%esi),%eax
 8048b21:	89 44 24 08          	mov    %eax,0x8(%esp)
 8048b25:	c7 44 24 04 ca a3 04 	movl   $0x804a3ca,0x4(%esp)
 8048b2c:	08 
 8048b2d:	c7 04 24 01 00 00 00 	movl   $0x1,(%esp)
 8048b34:	e8 6b fd ff ff       	call   80488a4 <__printf_chk@plt>
 8048b39:	c7 04 24 08 00 00 00 	movl   $0x8,(%esp)
 8048b40:	e8 bf fe ff ff       	call   8048a04 <exit@plt>
 8048b45:	8b 06                	mov    (%esi),%eax
 8048b47:	89 44 24 08          	mov    %eax,0x8(%esp)
 8048b4b:	c7 44 24 04 e7 a3 04 	movl   $0x804a3e7,0x4(%esp)
 8048b52:	08 
 8048b53:	c7 04 24 01 00 00 00 	movl   $0x1,(%esp)
 8048b5a:	e8 45 fd ff ff       	call   80488a4 <__printf_chk@plt>
 8048b5f:	c7 04 24 08 00 00 00 	movl   $0x8,(%esp)
 8048b66:	e8 99 fe ff ff       	call   8048a04 <exit@plt>
 8048b6b:	e8 f1 0a 00 00       	call   8049661 <initialize_bomb>
 8048b70:	c7 44 24 04 14 a4 04 	movl   $0x804a414,0x4(%esp)
 8048b77:	08 
 8048b78:	c7 04 24 01 00 00 00 	movl   $0x1,(%esp)
 8048b7f:	e8 20 fd ff ff       	call   80488a4 <__printf_chk@plt>
 8048b84:	c7 44 24 04 50 a4 04 	movl   $0x804a450,0x4(%esp)
 8048b8b:	08 
 8048b8c:	c7 04 24 01 00 00 00 	movl   $0x1,(%esp)
 8048b93:	e8 0c fd ff ff       	call   80488a4 <__printf_chk@plt>
 8048b98:	e8 8c 09 00 00       	call   8049529 <read_line>
 8048b9d:	89 04 24             	mov    %eax,(%esp)
 8048ba0:	e8 91 05 00 00       	call   8049136 <phase_1>
 8048ba5:	e8 7c 07 00 00       	call   8049326 <phase_defused>
 8048baa:	c7 44 24 04 80 a4 04 	movl   $0x804a480,0x4(%esp)
 8048bb1:	08 
 8048bb2:	c7 04 24 01 00 00 00 	movl   $0x1,(%esp)
 8048bb9:	e8 e6 fc ff ff       	call   80488a4 <__printf_chk@plt>
 8048bbe:	e8 66 09 00 00       	call   8049529 <read_line>
 8048bc3:	89 04 24             	mov    %eax,(%esp)
 8048bc6:	e8 d3 02 00 00       	call   8048e9e <phase_2>
 8048bcb:	e8 56 07 00 00       	call   8049326 <phase_defused>
 8048bd0:	c7 44 24 04 ac a4 04 	movl   $0x804a4ac,0x4(%esp)
 8048bd7:	08 
 8048bd8:	c7 04 24 01 00 00 00 	movl   $0x1,(%esp)
 8048bdf:	e8 c0 fc ff ff       	call   80488a4 <__printf_chk@plt>
 8048be4:	e8 40 09 00 00       	call   8049529 <read_line>
 8048be9:	89 04 24             	mov    %eax,(%esp)
 8048bec:	e8 e6 03 00 00       	call   8048fd7 <phase_3>
 8048bf1:	e8 30 07 00 00       	call   8049326 <phase_defused>
 8048bf6:	c7 44 24 04 01 a4 04 	movl   $0x804a401,0x4(%esp)
 8048bfd:	08 
 8048bfe:	c7 04 24 01 00 00 00 	movl   $0x1,(%esp)
 8048c05:	e8 9a fc ff ff       	call   80488a4 <__printf_chk@plt>
 8048c0a:	e8 1a 09 00 00       	call   8049529 <read_line>
 8048c0f:	89 04 24             	mov    %eax,(%esp)
 8048c12:	e8 4f 03 00 00       	call   8048f66 <phase_4>
 8048c17:	e8 0a 07 00 00       	call   8049326 <phase_defused>
 8048c1c:	c7 44 24 04 cc a4 04 	movl   $0x804a4cc,0x4(%esp)
 8048c23:	08 
 8048c24:	c7 04 24 01 00 00 00 	movl   $0x1,(%esp)
 8048c2b:	e8 74 fc ff ff       	call   80488a4 <__printf_chk@plt>
 8048c30:	e8 f4 08 00 00       	call   8049529 <read_line>
 8048c35:	89 04 24             	mov    %eax,(%esp)
 8048c38:	e8 b3 02 00 00       	call   8048ef0 <phase_5>
 8048c3d:	e8 e4 06 00 00       	call   8049326 <phase_defused>
 8048c42:	c7 44 24 04 f4 a4 04 	movl   $0x804a4f4,0x4(%esp)
 8048c49:	08 
 8048c4a:	c7 04 24 01 00 00 00 	movl   $0x1,(%esp)
 8048c51:	e8 4e fc ff ff       	call   80488a4 <__printf_chk@plt>
 8048c56:	e8 ce 08 00 00       	call   8049529 <read_line>
 8048c5b:	89 04 24             	mov    %eax,(%esp)
 8048c5e:	e8 42 01 00 00       	call   8048da5 <phase_6>
 8048c63:	e8 be 06 00 00       	call   8049326 <phase_defused>
 8048c68:	b8 00 00 00 00       	mov    $0x0,%eax
 8048c6d:	83 c4 18             	add    $0x18,%esp
 8048c70:	5b                   	pop    %ebx
 8048c71:	5e                   	pop    %esi
 8048c72:	89 ec                	mov    %ebp,%esp
 8048c74:	5d                   	pop    %ebp
 8048c75:	c3                   	ret    
 8048c76:	90                   	nop
 8048c77:	90                   	nop
 8048c78:	90                   	nop
 8048c79:	90                   	nop
 8048c7a:	90                   	nop
 8048c7b:	90                   	nop
 8048c7c:	90                   	nop
 8048c7d:	90                   	nop
 8048c7e:	90                   	nop
 8048c7f:	90                   	nop

08048c80 <func4>:
 8048c80:	55                   	push   %ebp
 8048c81:	89 e5                	mov    %esp,%ebp
 8048c83:	83 ec 18             	sub    $0x18,%esp
 8048c86:	89 5d f8             	mov    %ebx,-0x8(%ebp)
 8048c89:	89 75 fc             	mov    %esi,-0x4(%ebp)
 8048c8c:	8b 45 08             	mov    0x8(%ebp),%eax
 8048c8f:	8b 55 0c             	mov    0xc(%ebp),%edx
 8048c92:	8b 75 10             	mov    0x10(%ebp),%esi
 8048c95:	89 f1                	mov    %esi,%ecx
 8048c97:	29 d1                	sub    %edx,%ecx
 8048c99:	89 cb                	mov    %ecx,%ebx
 8048c9b:	c1 eb 1f             	shr    $0x1f,%ebx
 8048c9e:	8d 0c 0b             	lea    (%ebx,%ecx,1),%ecx
 8048ca1:	d1 f9                	sar    %ecx
 8048ca3:	8d 1c 11             	lea    (%ecx,%edx,1),%ebx
 8048ca6:	39 c3                	cmp    %eax,%ebx
 8048ca8:	7e 17                	jle    8048cc1 <func4+0x41>
 8048caa:	8d 4b ff             	lea    -0x1(%ebx),%ecx
 8048cad:	89 4c 24 08          	mov    %ecx,0x8(%esp)
 8048cb1:	89 54 24 04          	mov    %edx,0x4(%esp)
 8048cb5:	89 04 24             	mov    %eax,(%esp)
 8048cb8:	e8 c3 ff ff ff       	call   8048c80 <func4>
 8048cbd:	01 c3                	add    %eax,%ebx
 8048cbf:	eb 19                	jmp    8048cda <func4+0x5a>
 8048cc1:	39 c3                	cmp    %eax,%ebx
 8048cc3:	7d 15                	jge    8048cda <func4+0x5a>
 8048cc5:	89 74 24 08          	mov    %esi,0x8(%esp)
 8048cc9:	8d 53 01             	lea    0x1(%ebx),%edx
 8048ccc:	89 54 24 04          	mov    %edx,0x4(%esp)
 8048cd0:	89 04 24             	mov    %eax,(%esp)
 8048cd3:	e8 a8 ff ff ff       	call   8048c80 <func4>
 8048cd8:	01 c3                	add    %eax,%ebx
 8048cda:	89 d8                	mov    %ebx,%eax
 8048cdc:	8b 5d f8             	mov    -0x8(%ebp),%ebx
 8048cdf:	8b 75 fc             	mov    -0x4(%ebp),%esi
 8048ce2:	89 ec                	mov    %ebp,%esp
 8048ce4:	5d                   	pop    %ebp
 8048ce5:	c3                   	ret    

08048ce6 <fun7>:
 8048ce6:	55                   	push   %ebp
 8048ce7:	89 e5                	mov    %esp,%ebp
 8048ce9:	53                   	push   %ebx
 8048cea:	83 ec 14             	sub    $0x14,%esp
 8048ced:	8b 55 08             	mov    0x8(%ebp),%edx
 8048cf0:	8b 4d 0c             	mov    0xc(%ebp),%ecx
 8048cf3:	b8 ff ff ff ff       	mov    $0xffffffff,%eax
 8048cf8:	85 d2                	test   %edx,%edx
 8048cfa:	74 35                	je     8048d31 <fun7+0x4b>
 8048cfc:	8b 1a                	mov    (%edx),%ebx
 8048cfe:	39 cb                	cmp    %ecx,%ebx
 8048d00:	7e 13                	jle    8048d15 <fun7+0x2f>
 8048d02:	89 4c 24 04          	mov    %ecx,0x4(%esp)
 8048d06:	8b 42 04             	mov    0x4(%edx),%eax
 8048d09:	89 04 24             	mov    %eax,(%esp)
 8048d0c:	e8 d5 ff ff ff       	call   8048ce6 <fun7>
 8048d11:	01 c0                	add    %eax,%eax
 8048d13:	eb 1c                	jmp    8048d31 <fun7+0x4b>
 8048d15:	b8 00 00 00 00       	mov    $0x0,%eax
 8048d1a:	39 cb                	cmp    %ecx,%ebx
 8048d1c:	74 13                	je     8048d31 <fun7+0x4b>
 8048d1e:	89 4c 24 04          	mov    %ecx,0x4(%esp)
 8048d22:	8b 42 08             	mov    0x8(%edx),%eax
 8048d25:	89 04 24             	mov    %eax,(%esp)
 8048d28:	e8 b9 ff ff ff       	call   8048ce6 <fun7>
 8048d2d:	8d 44 00 01          	lea    0x1(%eax,%eax,1),%eax
 8048d31:	83 c4 14             	add    $0x14,%esp
 8048d34:	5b                   	pop    %ebx
 8048d35:	5d                   	pop    %ebp
 8048d36:	c3                   	ret    

08048d37 <secret_phase>:
 8048d37:	55                   	push   %ebp
 8048d38:	89 e5                	mov    %esp,%ebp
 8048d3a:	53                   	push   %ebx
 8048d3b:	83 ec 14             	sub    $0x14,%esp
 8048d3e:	e8 e6 07 00 00       	call   8049529 <read_line>
 8048d43:	c7 44 24 08 0a 00 00 	movl   $0xa,0x8(%esp)
 8048d4a:	00 
 8048d4b:	c7 44 24 04 00 00 00 	movl   $0x0,0x4(%esp)
 8048d52:	00 
 8048d53:	89 04 24             	mov    %eax,(%esp)
 8048d56:	e8 b9 fb ff ff       	call   8048914 <strtol@plt>
 8048d5b:	89 c3                	mov    %eax,%ebx
 8048d5d:	8d 40 ff             	lea    -0x1(%eax),%eax
 8048d60:	3d e8 03 00 00       	cmp    $0x3e8,%eax
 8048d65:	76 05                	jbe    8048d6c <secret_phase+0x35>
 8048d67:	e8 95 06 00 00       	call   8049401 <explode_bomb>
 8048d6c:	89 5c 24 04          	mov    %ebx,0x4(%esp)
 8048d70:	c7 04 24 b0 c5 04 08 	movl   $0x804c5b0,(%esp)
 8048d77:	e8 6a ff ff ff       	call   8048ce6 <fun7>
 8048d7c:	83 f8 04             	cmp    $0x4,%eax
 8048d7f:	74 05                	je     8048d86 <secret_phase+0x4f>
 8048d81:	e8 7b 06 00 00       	call   8049401 <explode_bomb>
 8048d86:	c7 44 24 04 14 a5 04 	movl   $0x804a514,0x4(%esp)
 8048d8d:	08 
 8048d8e:	c7 04 24 01 00 00 00 	movl   $0x1,(%esp)
 8048d95:	e8 0a fb ff ff       	call   80488a4 <__printf_chk@plt>
 8048d9a:	e8 87 05 00 00       	call   8049326 <phase_defused>
 8048d9f:	83 c4 14             	add    $0x14,%esp
 8048da2:	5b                   	pop    %ebx
 8048da3:	5d                   	pop    %ebp
 8048da4:	c3                   	ret    

08048da5 <phase_6>:
 8048da5:	55                   	push   %ebp
 8048da6:	89 e5                	mov    %esp,%ebp
 8048da8:	57                   	push   %edi
 8048da9:	56                   	push   %esi
 8048daa:	53                   	push   %ebx
 8048dab:	83 ec 5c             	sub    $0x5c,%esp
 8048dae:	8d 45 d0             	lea    -0x30(%ebp),%eax
 8048db1:	89 44 24 04          	mov    %eax,0x4(%esp)
 8048db5:	8b 45 08             	mov    0x8(%ebp),%eax
 8048db8:	89 04 24             	mov    %eax,(%esp)
 8048dbb:	e8 9b 06 00 00       	call   804945b <read_six_numbers>
 8048dc0:	be 00 00 00 00       	mov    $0x0,%esi
 8048dc5:	8d 7d d0             	lea    -0x30(%ebp),%edi
 8048dc8:	8b 04 b7             	mov    (%edi,%esi,4),%eax
 8048dcb:	83 e8 01             	sub    $0x1,%eax
 8048dce:	83 f8 05             	cmp    $0x5,%eax
 8048dd1:	76 05                	jbe    8048dd8 <phase_6+0x33>
 8048dd3:	e8 29 06 00 00       	call   8049401 <explode_bomb>
 8048dd8:	83 c6 01             	add    $0x1,%esi
 8048ddb:	83 fe 06             	cmp    $0x6,%esi
 8048dde:	74 22                	je     8048e02 <phase_6+0x5d>
 8048de0:	8d 1c b7             	lea    (%edi,%esi,4),%ebx
 8048de3:	89 75 b4             	mov    %esi,-0x4c(%ebp)
 8048de6:	8b 44 b7 fc          	mov    -0x4(%edi,%esi,4),%eax
 8048dea:	3b 03                	cmp    (%ebx),%eax
 8048dec:	75 05                	jne    8048df3 <phase_6+0x4e>
 8048dee:	e8 0e 06 00 00       	call   8049401 <explode_bomb>
 8048df3:	83 45 b4 01          	addl   $0x1,-0x4c(%ebp)
 8048df7:	83 c3 04             	add    $0x4,%ebx
 8048dfa:	83 7d b4 05          	cmpl   $0x5,-0x4c(%ebp)
 8048dfe:	7e e6                	jle    8048de6 <phase_6+0x41>
 8048e00:	eb c6                	jmp    8048dc8 <phase_6+0x23>
 8048e02:	8d 45 d0             	lea    -0x30(%ebp),%eax
 8048e05:	8d 5d e8             	lea    -0x18(%ebp),%ebx
 8048e08:	b9 07 00 00 00       	mov    $0x7,%ecx
 8048e0d:	89 ca                	mov    %ecx,%edx
 8048e0f:	2b 10                	sub    (%eax),%edx
 8048e11:	89 10                	mov    %edx,(%eax)
 8048e13:	83 c0 04             	add    $0x4,%eax
 8048e16:	39 d8                	cmp    %ebx,%eax
 8048e18:	75 f3                	jne    8048e0d <phase_6+0x68>
 8048e1a:	bb 00 00 00 00       	mov    $0x0,%ebx
 8048e1f:	8d 7d d0             	lea    -0x30(%ebp),%edi
 8048e22:	eb 16                	jmp    8048e3a <phase_6+0x95>
 8048e24:	8b 52 08             	mov    0x8(%edx),%edx
 8048e27:	83 c0 01             	add    $0x1,%eax
 8048e2a:	39 c8                	cmp    %ecx,%eax
 8048e2c:	75 f6                	jne    8048e24 <phase_6+0x7f>
 8048e2e:	89 54 b5 b8          	mov    %edx,-0x48(%ebp,%esi,4)
 8048e32:	83 c3 01             	add    $0x1,%ebx
 8048e35:	83 fb 06             	cmp    $0x6,%ebx
 8048e38:	74 16                	je     8048e50 <phase_6+0xab>
 8048e3a:	89 de                	mov    %ebx,%esi
 8048e3c:	8b 0c 9f             	mov    (%edi,%ebx,4),%ecx
 8048e3f:	b8 01 00 00 00       	mov    $0x1,%eax
 8048e44:	ba fc c4 04 08       	mov    $0x804c4fc,%edx
 8048e49:	83 f9 01             	cmp    $0x1,%ecx
 8048e4c:	7f d6                	jg     8048e24 <phase_6+0x7f>
 8048e4e:	eb de                	jmp    8048e2e <phase_6+0x89>
 8048e50:	8b 5d b8             	mov    -0x48(%ebp),%ebx
 8048e53:	8b 45 bc             	mov    -0x44(%ebp),%eax
 8048e56:	89 43 08             	mov    %eax,0x8(%ebx)
 8048e59:	8b 55 c0             	mov    -0x40(%ebp),%edx
 8048e5c:	89 50 08             	mov    %edx,0x8(%eax)
 8048e5f:	8b 45 c4             	mov    -0x3c(%ebp),%eax
 8048e62:	89 42 08             	mov    %eax,0x8(%edx)
 8048e65:	8b 55 c8             	mov    -0x38(%ebp),%edx
 8048e68:	89 50 08             	mov    %edx,0x8(%eax)
 8048e6b:	8b 45 cc             	mov    -0x34(%ebp),%eax
 8048e6e:	89 42 08             	mov    %eax,0x8(%edx)
 8048e71:	c7 40 08 00 00 00 00 	movl   $0x0,0x8(%eax)
 8048e78:	be 00 00 00 00       	mov    $0x0,%esi
 8048e7d:	8b 43 08             	mov    0x8(%ebx),%eax
 8048e80:	8b 13                	mov    (%ebx),%edx
 8048e82:	3b 10                	cmp    (%eax),%edx
 8048e84:	7d 05                	jge    8048e8b <phase_6+0xe6>
 8048e86:	e8 76 05 00 00       	call   8049401 <explode_bomb>
 8048e8b:	8b 5b 08             	mov    0x8(%ebx),%ebx
 8048e8e:	83 c6 01             	add    $0x1,%esi
 8048e91:	83 fe 05             	cmp    $0x5,%esi
 8048e94:	75 e7                	jne    8048e7d <phase_6+0xd8>
 8048e96:	83 c4 5c             	add    $0x5c,%esp
 8048e99:	5b                   	pop    %ebx
 8048e9a:	5e                   	pop    %esi
 8048e9b:	5f                   	pop    %edi
 8048e9c:	5d                   	pop    %ebp
 8048e9d:	c3                   	ret    

08048e9e <phase_2>:
 8048e9e:	55                   	push   %ebp
 8048e9f:	89 e5                	mov    %esp,%ebp
 8048ea1:	56                   	push   %esi
 8048ea2:	53                   	push   %ebx
 8048ea3:	83 ec 30             	sub    $0x30,%esp
 8048ea6:	8d 45 e0             	lea    -0x20(%ebp),%eax
 8048ea9:	89 44 24 04          	mov    %eax,0x4(%esp)
 8048ead:	8b 45 08             	mov    0x8(%ebp),%eax
 8048eb0:	89 04 24             	mov    %eax,(%esp)
 8048eb3:	e8 a3 05 00 00       	call   804945b <read_six_numbers>
 8048eb8:	83 7d e0 00          	cmpl   $0x0,-0x20(%ebp)
 8048ebc:	75 06                	jne    8048ec4 <phase_2+0x26>
 8048ebe:	83 7d e4 01          	cmpl   $0x1,-0x1c(%ebp)
 8048ec2:	74 09                	je     8048ecd <phase_2+0x2f>
 8048ec4:	8d 74 26 00          	lea    0x0(%esi,%eiz,1),%esi
 8048ec8:	e8 34 05 00 00       	call   8049401 <explode_bomb>
 8048ecd:	8d 5d e8             	lea    -0x18(%ebp),%ebx
 8048ed0:	8d 75 f8             	lea    -0x8(%ebp),%esi
 8048ed3:	8b 43 fc             	mov    -0x4(%ebx),%eax
 8048ed6:	03 43 f8             	add    -0x8(%ebx),%eax
 8048ed9:	39 03                	cmp    %eax,(%ebx)
 8048edb:	74 05                	je     8048ee2 <phase_2+0x44>
 8048edd:	e8 1f 05 00 00       	call   8049401 <explode_bomb>
 8048ee2:	83 c3 04             	add    $0x4,%ebx
 8048ee5:	39 f3                	cmp    %esi,%ebx
 8048ee7:	75 ea                	jne    8048ed3 <phase_2+0x35>
 8048ee9:	83 c4 30             	add    $0x30,%esp
 8048eec:	5b                   	pop    %ebx
 8048eed:	5e                   	pop    %esi
 8048eee:	5d                   	pop    %ebp
 8048eef:	c3                   	ret    

08048ef0 <phase_5>:
 8048ef0:	55                   	push   %ebp
 8048ef1:	89 e5                	mov    %esp,%ebp
 8048ef3:	56                   	push   %esi
 8048ef4:	53                   	push   %ebx
 8048ef5:	83 ec 20             	sub    $0x20,%esp
 8048ef8:	8d 45 f0             	lea    -0x10(%ebp),%eax
 8048efb:	89 44 24 0c          	mov    %eax,0xc(%esp)
 8048eff:	8d 45 f4             	lea    -0xc(%ebp),%eax
 8048f02:	89 44 24 08          	mov    %eax,0x8(%esp)
 8048f06:	c7 44 24 04 4c a6 04 	movl   $0x804a64c,0x4(%esp)
 8048f0d:	08 
 8048f0e:	8b 45 08             	mov    0x8(%ebp),%eax
 8048f11:	89 04 24             	mov    %eax,(%esp)
 8048f14:	e8 7b f9 ff ff       	call   8048894 <__isoc99_sscanf@plt>
 8048f19:	83 f8 01             	cmp    $0x1,%eax
 8048f1c:	7f 05                	jg     8048f23 <phase_5+0x33>
 8048f1e:	e8 de 04 00 00       	call   8049401 <explode_bomb>
 8048f23:	8b 45 f4             	mov    -0xc(%ebp),%eax
 8048f26:	83 e0 0f             	and    $0xf,%eax
 8048f29:	89 45 f4             	mov    %eax,-0xc(%ebp)
 8048f2c:	83 f8 0f             	cmp    $0xf,%eax
 8048f2f:	74 29                	je     8048f5a <phase_5+0x6a>
 8048f31:	b9 00 00 00 00       	mov    $0x0,%ecx
 8048f36:	ba 00 00 00 00       	mov    $0x0,%edx
 8048f3b:	bb a0 a5 04 08       	mov    $0x804a5a0,%ebx
 8048f40:	83 c2 01             	add    $0x1,%edx
 8048f43:	8b 04 83             	mov    (%ebx,%eax,4),%eax
 8048f46:	01 c1                	add    %eax,%ecx
 8048f48:	83 f8 0f             	cmp    $0xf,%eax
 8048f4b:	75 f3                	jne    8048f40 <phase_5+0x50>
 8048f4d:	89 45 f4             	mov    %eax,-0xc(%ebp)
 8048f50:	83 fa 0f             	cmp    $0xf,%edx
 8048f53:	75 05                	jne    8048f5a <phase_5+0x6a>
 8048f55:	39 4d f0             	cmp    %ecx,-0x10(%ebp)
 8048f58:	74 05                	je     8048f5f <phase_5+0x6f>
 8048f5a:	e8 a2 04 00 00       	call   8049401 <explode_bomb>
 8048f5f:	83 c4 20             	add    $0x20,%esp
 8048f62:	5b                   	pop    %ebx
 8048f63:	5e                   	pop    %esi
 8048f64:	5d                   	pop    %ebp
 8048f65:	c3                   	ret    

08048f66 <phase_4>:
 8048f66:	55                   	push   %ebp
 8048f67:	89 e5                	mov    %esp,%ebp
 8048f69:	83 ec 28             	sub    $0x28,%esp
 8048f6c:	8d 45 f0             	lea    -0x10(%ebp),%eax
 8048f6f:	89 44 24 0c          	mov    %eax,0xc(%esp)
 8048f73:	8d 45 f4             	lea    -0xc(%ebp),%eax
 8048f76:	89 44 24 08          	mov    %eax,0x8(%esp)
 8048f7a:	c7 44 24 04 4c a6 04 	movl   $0x804a64c,0x4(%esp)
 8048f81:	08 
 8048f82:	8b 45 08             	mov    0x8(%ebp),%eax
 8048f85:	89 04 24             	mov    %eax,(%esp)
 8048f88:	e8 07 f9 ff ff       	call   8048894 <__isoc99_sscanf@plt>
 8048f8d:	83 f8 02             	cmp    $0x2,%eax
 8048f90:	75 0c                	jne    8048f9e <phase_4+0x38>
 8048f92:	8b 45 f4             	mov    -0xc(%ebp),%eax
 8048f95:	85 c0                	test   %eax,%eax
 8048f97:	78 05                	js     8048f9e <phase_4+0x38>
 8048f99:	83 f8 0e             	cmp    $0xe,%eax
 8048f9c:	7e 07                	jle    8048fa5 <phase_4+0x3f>
 8048f9e:	66 90                	xchg   %ax,%ax
 8048fa0:	e8 5c 04 00 00       	call   8049401 <explode_bomb>
 8048fa5:	c7 44 24 08 0e 00 00 	movl   $0xe,0x8(%esp)
 8048fac:	00 
 8048fad:	c7 44 24 04 00 00 00 	movl   $0x0,0x4(%esp)
 8048fb4:	00 
 8048fb5:	8b 45 f4             	mov    -0xc(%ebp),%eax
 8048fb8:	89 04 24             	mov    %eax,(%esp)
 8048fbb:	e8 c0 fc ff ff       	call   8048c80 <func4>
 8048fc0:	83 f8 1f             	cmp    $0x1f,%eax
 8048fc3:	75 06                	jne    8048fcb <phase_4+0x65>
 8048fc5:	83 7d f0 1f          	cmpl   $0x1f,-0x10(%ebp)
 8048fc9:	74 0a                	je     8048fd5 <phase_4+0x6f>
 8048fcb:	90                   	nop
 8048fcc:	8d 74 26 00          	lea    0x0(%esi,%eiz,1),%esi
 8048fd0:	e8 2c 04 00 00       	call   8049401 <explode_bomb>
 8048fd5:	c9                   	leave  
 8048fd6:	c3                   	ret    

08048fd7 <phase_3>:
 8048fd7:	55                   	push   %ebp
 8048fd8:	89 e5                	mov    %esp,%ebp
 8048fda:	83 ec 38             	sub    $0x38,%esp
 8048fdd:	8d 45 ec             	lea    -0x14(%ebp),%eax
 8048fe0:	89 44 24 10          	mov    %eax,0x10(%esp)
 8048fe4:	8d 45 f7             	lea    -0x9(%ebp),%eax
 8048fe7:	89 44 24 0c          	mov    %eax,0xc(%esp)
 8048feb:	8d 45 f0             	lea    -0x10(%ebp),%eax
 8048fee:	89 44 24 08          	mov    %eax,0x8(%esp)
 8048ff2:	c7 44 24 04 3b a5 04 	movl   $0x804a53b,0x4(%esp)
 8048ff9:	08 
 8048ffa:	8b 45 08             	mov    0x8(%ebp),%eax
 8048ffd:	89 04 24             	mov    %eax,(%esp)
 8049000:	e8 8f f8 ff ff       	call   8048894 <__isoc99_sscanf@plt>
 8049005:	83 f8 02             	cmp    $0x2,%eax
 8049008:	7f 05                	jg     804900f <phase_3+0x38>
 804900a:	e8 f2 03 00 00       	call   8049401 <explode_bomb>
 804900f:	83 7d f0 07          	cmpl   $0x7,-0x10(%ebp)
 8049013:	0f 87 05 01 00 00    	ja     804911e <phase_3+0x147>
 8049019:	8b 45 f0             	mov    -0x10(%ebp),%eax
 804901c:	8d 74 26 00          	lea    0x0(%esi,%eiz,1),%esi
 8049020:	ff 24 85 80 a5 04 08 	jmp    *0x804a580(,%eax,4)
 8049027:	b8 67 00 00 00       	mov    $0x67,%eax
 804902c:	81 7d ec 9d 02 00 00 	cmpl   $0x29d,-0x14(%ebp)
 8049033:	0f 84 f1 00 00 00    	je     804912a <phase_3+0x153>
 8049039:	e8 c3 03 00 00       	call   8049401 <explode_bomb>
 804903e:	b8 67 00 00 00       	mov    $0x67,%eax
 8049043:	e9 e2 00 00 00       	jmp    804912a <phase_3+0x153>
 8049048:	b8 61 00 00 00       	mov    $0x61,%eax
 804904d:	81 7d ec 7e 03 00 00 	cmpl   $0x37e,-0x14(%ebp)
 8049054:	0f 84 d0 00 00 00    	je     804912a <phase_3+0x153>
 804905a:	e8 a2 03 00 00       	call   8049401 <explode_bomb>
 804905f:	b8 61 00 00 00       	mov    $0x61,%eax
 8049064:	e9 c1 00 00 00       	jmp    804912a <phase_3+0x153>
 8049069:	b8 72 00 00 00       	mov    $0x72,%eax
 804906e:	81 7d ec ce 02 00 00 	cmpl   $0x2ce,-0x14(%ebp)
 8049075:	0f 84 af 00 00 00    	je     804912a <phase_3+0x153>
 804907b:	90                   	nop
 804907c:	8d 74 26 00          	lea    0x0(%esi,%eiz,1),%esi
 8049080:	e8 7c 03 00 00       	call   8049401 <explode_bomb>
 8049085:	b8 72 00 00 00       	mov    $0x72,%eax
 804908a:	e9 9b 00 00 00       	jmp    804912a <phase_3+0x153>
 804908f:	b8 64 00 00 00       	mov    $0x64,%eax
 8049094:	81 7d ec a1 00 00 00 	cmpl   $0xa1,-0x14(%ebp)
 804909b:	0f 84 89 00 00 00    	je     804912a <phase_3+0x153>
 80490a1:	e8 5b 03 00 00       	call   8049401 <explode_bomb>
 80490a6:	b8 64 00 00 00       	mov    $0x64,%eax
 80490ab:	eb 7d                	jmp    804912a <phase_3+0x153>
 80490ad:	b8 78 00 00 00       	mov    $0x78,%eax
 80490b2:	81 7d ec 78 01 00 00 	cmpl   $0x178,-0x14(%ebp)
 80490b9:	74 6f                	je     804912a <phase_3+0x153>
 80490bb:	90                   	nop
 80490bc:	8d 74 26 00          	lea    0x0(%esi,%eiz,1),%esi
 80490c0:	e8 3c 03 00 00       	call   8049401 <explode_bomb>
 80490c5:	b8 78 00 00 00       	mov    $0x78,%eax
 80490ca:	eb 5e                	jmp    804912a <phase_3+0x153>
 80490cc:	b8 62 00 00 00       	mov    $0x62,%eax
 80490d1:	81 7d ec a3 03 00 00 	cmpl   $0x3a3,-0x14(%ebp)
 80490d8:	74 50                	je     804912a <phase_3+0x153>
 80490da:	e8 22 03 00 00       	call   8049401 <explode_bomb>
 80490df:	b8 62 00 00 00       	mov    $0x62,%eax
 80490e4:	eb 44                	jmp    804912a <phase_3+0x153>
 80490e6:	b8 75 00 00 00       	mov    $0x75,%eax
 80490eb:	81 7d ec f9 01 00 00 	cmpl   $0x1f9,-0x14(%ebp)
 80490f2:	74 36                	je     804912a <phase_3+0x153>
 80490f4:	e8 08 03 00 00       	call   8049401 <explode_bomb>
 80490f9:	b8 75 00 00 00       	mov    $0x75,%eax
 80490fe:	66 90                	xchg   %ax,%ax
 8049100:	eb 28                	jmp    804912a <phase_3+0x153>
 8049102:	b8 6c 00 00 00       	mov    $0x6c,%eax
 8049107:	81 7d ec 20 01 00 00 	cmpl   $0x120,-0x14(%ebp)
 804910e:	66 90                	xchg   %ax,%ax
 8049110:	74 18                	je     804912a <phase_3+0x153>
 8049112:	e8 ea 02 00 00       	call   8049401 <explode_bomb>
 8049117:	b8 6c 00 00 00       	mov    $0x6c,%eax
 804911c:	eb 0c                	jmp    804912a <phase_3+0x153>
 804911e:	66 90                	xchg   %ax,%ax
 8049120:	e8 dc 02 00 00       	call   8049401 <explode_bomb>
 8049125:	b8 7a 00 00 00       	mov    $0x7a,%eax
 804912a:	3a 45 f7             	cmp    -0x9(%ebp),%al
 804912d:	74 05                	je     8049134 <phase_3+0x15d>
 804912f:	e8 cd 02 00 00       	call   8049401 <explode_bomb>
 8049134:	c9                   	leave  
 8049135:	c3                   	ret    

08049136 <phase_1>:
 8049136:	55                   	push   %ebp
 8049137:	89 e5                	mov    %esp,%ebp
 8049139:	83 ec 18             	sub    $0x18,%esp
 804913c:	c7 44 24 04 44 a5 04 	movl   $0x804a544,0x4(%esp)
 8049143:	08 
 8049144:	8b 45 08             	mov    0x8(%ebp),%eax
 8049147:	89 04 24             	mov    %eax,(%esp)
 804914a:	e8 2c 00 00 00       	call   804917b <strings_not_equal>
 804914f:	85 c0                	test   %eax,%eax
 8049151:	74 05                	je     8049158 <phase_1+0x22>
 8049153:	e8 a9 02 00 00       	call   8049401 <explode_bomb>
 8049158:	c9                   	leave  
 8049159:	c3                   	ret    
 804915a:	90                   	nop
 804915b:	90                   	nop
 804915c:	90                   	nop
 804915d:	90                   	nop
 804915e:	90                   	nop
 804915f:	90                   	nop

08049160 <string_length>:
 8049160:	55                   	push   %ebp
 8049161:	89 e5                	mov    %esp,%ebp
 8049163:	8b 55 08             	mov    0x8(%ebp),%edx
 8049166:	b8 00 00 00 00       	mov    $0x0,%eax
 804916b:	80 3a 00             	cmpb   $0x0,(%edx)
 804916e:	74 09                	je     8049179 <string_length+0x19>
 8049170:	83 c0 01             	add    $0x1,%eax
 8049173:	80 3c 02 00          	cmpb   $0x0,(%edx,%eax,1)
 8049177:	75 f7                	jne    8049170 <string_length+0x10>
 8049179:	5d                   	pop    %ebp
 804917a:	c3                   	ret    

0804917b <strings_not_equal>:
 804917b:	55                   	push   %ebp
 804917c:	89 e5                	mov    %esp,%ebp
 804917e:	57                   	push   %edi
 804917f:	56                   	push   %esi
 8049180:	53                   	push   %ebx
 8049181:	83 ec 04             	sub    $0x4,%esp
 8049184:	8b 5d 08             	mov    0x8(%ebp),%ebx
 8049187:	8b 75 0c             	mov    0xc(%ebp),%esi
 804918a:	89 1c 24             	mov    %ebx,(%esp)
 804918d:	e8 ce ff ff ff       	call   8049160 <string_length>
 8049192:	89 c7                	mov    %eax,%edi
 8049194:	89 34 24             	mov    %esi,(%esp)
 8049197:	e8 c4 ff ff ff       	call   8049160 <string_length>
 804919c:	39 c7                	cmp    %eax,%edi
 804919e:	75 29                	jne    80491c9 <strings_not_equal+0x4e>
 80491a0:	0f b6 13             	movzbl (%ebx),%edx
 80491a3:	84 d2                	test   %dl,%dl
 80491a5:	74 2b                	je     80491d2 <strings_not_equal+0x57>
 80491a7:	b8 00 00 00 00       	mov    $0x0,%eax
 80491ac:	3a 16                	cmp    (%esi),%dl
 80491ae:	74 0e                	je     80491be <strings_not_equal+0x43>
 80491b0:	eb 17                	jmp    80491c9 <strings_not_equal+0x4e>
 80491b2:	0f b6 4c 06 01       	movzbl 0x1(%esi,%eax,1),%ecx
 80491b7:	83 c0 01             	add    $0x1,%eax
 80491ba:	38 ca                	cmp    %cl,%dl
 80491bc:	75 0b                	jne    80491c9 <strings_not_equal+0x4e>
 80491be:	0f b6 54 03 01       	movzbl 0x1(%ebx,%eax,1),%edx
 80491c3:	84 d2                	test   %dl,%dl
 80491c5:	75 eb                	jne    80491b2 <strings_not_equal+0x37>
 80491c7:	eb 09                	jmp    80491d2 <strings_not_equal+0x57>
 80491c9:	b8 01 00 00 00       	mov    $0x1,%eax
 80491ce:	66 90                	xchg   %ax,%ax
 80491d0:	eb 05                	jmp    80491d7 <strings_not_equal+0x5c>
 80491d2:	b8 00 00 00 00       	mov    $0x0,%eax
 80491d7:	83 c4 04             	add    $0x4,%esp
 80491da:	5b                   	pop    %ebx
 80491db:	5e                   	pop    %esi
 80491dc:	5f                   	pop    %edi
 80491dd:	5d                   	pop    %ebp
 80491de:	c3                   	ret    

080491df <initialize_bomb_solve>:
 80491df:	55                   	push   %ebp
 80491e0:	89 e5                	mov    %esp,%ebp
 80491e2:	5d                   	pop    %ebp
 80491e3:	c3                   	ret    

080491e4 <invalid_phase>:
 80491e4:	55                   	push   %ebp
 80491e5:	89 e5                	mov    %esp,%ebp
 80491e7:	83 ec 18             	sub    $0x18,%esp
 80491ea:	8b 45 08             	mov    0x8(%ebp),%eax
 80491ed:	89 44 24 08          	mov    %eax,0x8(%esp)
 80491f1:	c7 44 24 04 e0 a5 04 	movl   $0x804a5e0,0x4(%esp)
 80491f8:	08 
 80491f9:	c7 04 24 01 00 00 00 	movl   $0x1,(%esp)
 8049200:	e8 9f f6 ff ff       	call   80488a4 <__printf_chk@plt>
 8049205:	c7 04 24 08 00 00 00 	movl   $0x8,(%esp)
 804920c:	e8 f3 f7 ff ff       	call   8048a04 <exit@plt>

08049211 <send_msg>:
 8049211:	55                   	push   %ebp
 8049212:	89 e5                	mov    %esp,%ebp
 8049214:	57                   	push   %edi
 8049215:	53                   	push   %ebx
 8049216:	81 ec 30 40 00 00    	sub    $0x4030,%esp
 804921c:	65 a1 14 00 00 00    	mov    %gs:0x14,%eax
 8049222:	89 45 f4             	mov    %eax,-0xc(%ebp)
 8049225:	31 c0                	xor    %eax,%eax
 8049227:	8b 15 ec c7 04 08    	mov    0x804c7ec,%edx
 804922d:	8d 5c 92 fb          	lea    -0x5(%edx,%edx,4),%ebx
 8049231:	c1 e3 04             	shl    $0x4,%ebx
 8049234:	81 c3 00 c8 04 08    	add    $0x804c800,%ebx
 804923a:	89 df                	mov    %ebx,%edi
 804923c:	b9 ff ff ff ff       	mov    $0xffffffff,%ecx
 8049241:	f2 ae                	repnz scas %es:(%edi),%al
 8049243:	f7 d1                	not    %ecx
 8049245:	83 c1 63             	add    $0x63,%ecx
 8049248:	81 f9 00 20 00 00    	cmp    $0x2000,%ecx
 804924e:	76 20                	jbe    8049270 <send_msg+0x5f>
 8049250:	c7 44 24 04 ec aa 04 	movl   $0x804aaec,0x4(%esp)
 8049257:	08 
 8049258:	c7 04 24 01 00 00 00 	movl   $0x1,(%esp)
 804925f:	e8 40 f6 ff ff       	call   80488a4 <__printf_chk@plt>
 8049264:	c7 04 24 08 00 00 00 	movl   $0x8,(%esp)
 804926b:	e8 94 f7 ff ff       	call   8048a04 <exit@plt>
 8049270:	b8 fa a5 04 08       	mov    $0x804a5fa,%eax
 8049275:	83 7d 08 00          	cmpl   $0x0,0x8(%ebp)
 8049279:	75 05                	jne    8049280 <send_msg+0x6f>
 804927b:	b8 f1 a5 04 08       	mov    $0x804a5f1,%eax
 8049280:	89 5c 24 1c          	mov    %ebx,0x1c(%esp)
 8049284:	89 54 24 18          	mov    %edx,0x18(%esp)
 8049288:	89 44 24 14          	mov    %eax,0x14(%esp)
 804928c:	a1 a0 c0 04 08       	mov    0x804c0a0,%eax
 8049291:	89 44 24 10          	mov    %eax,0x10(%esp)
 8049295:	c7 44 24 0c 02 a6 04 	movl   $0x804a602,0xc(%esp)
 804929c:	08 
 804929d:	c7 44 24 08 00 20 00 	movl   $0x2000,0x8(%esp)
 80492a4:	00 
 80492a5:	c7 44 24 04 01 00 00 	movl   $0x1,0x4(%esp)
 80492ac:	00 
 80492ad:	8d 9d f4 df ff ff    	lea    -0x200c(%ebp),%ebx
 80492b3:	89 1c 24             	mov    %ebx,(%esp)
 80492b6:	e8 19 f7 ff ff       	call   80489d4 <__sprintf_chk@plt>
 80492bb:	8d 85 f4 bf ff ff    	lea    -0x400c(%ebp),%eax
 80492c1:	89 44 24 0c          	mov    %eax,0xc(%esp)
 80492c5:	c7 44 24 08 00 00 00 	movl   $0x0,0x8(%esp)
 80492cc:	00 
 80492cd:	89 5c 24 04          	mov    %ebx,0x4(%esp)
 80492d1:	c7 04 24 c0 c0 04 08 	movl   $0x804c0c0,(%esp)
 80492d8:	e8 86 0f 00 00       	call   804a263 <driver_post>
 80492dd:	85 c0                	test   %eax,%eax
 80492df:	79 2a                	jns    804930b <send_msg+0xfa>
 80492e1:	8d 85 f4 bf ff ff    	lea    -0x400c(%ebp),%eax
 80492e7:	89 44 24 08          	mov    %eax,0x8(%esp)
 80492eb:	c7 44 24 04 8f a6 04 	movl   $0x804a68f,0x4(%esp)
 80492f2:	08 
 80492f3:	c7 04 24 01 00 00 00 	movl   $0x1,(%esp)
 80492fa:	e8 a5 f5 ff ff       	call   80488a4 <__printf_chk@plt>
 80492ff:	c7 04 24 00 00 00 00 	movl   $0x0,(%esp)
 8049306:	e8 f9 f6 ff ff       	call   8048a04 <exit@plt>
 804930b:	8b 45 f4             	mov    -0xc(%ebp),%eax
 804930e:	65 33 05 14 00 00 00 	xor    %gs:0x14,%eax
 8049315:	74 05                	je     804931c <send_msg+0x10b>
 8049317:	e8 88 f6 ff ff       	call   80489a4 <__stack_chk_fail@plt>
 804931c:	81 c4 30 40 00 00    	add    $0x4030,%esp
 8049322:	5b                   	pop    %ebx
 8049323:	5f                   	pop    %edi
 8049324:	5d                   	pop    %ebp
 8049325:	c3                   	ret    

08049326 <phase_defused>:
 8049326:	55                   	push   %ebp
 8049327:	89 e5                	mov    %esp,%ebp
 8049329:	81 ec 88 00 00 00    	sub    $0x88,%esp
 804932f:	65 a1 14 00 00 00    	mov    %gs:0x14,%eax
 8049335:	89 45 f4             	mov    %eax,-0xc(%ebp)
 8049338:	31 c0                	xor    %eax,%eax
 804933a:	c7 04 24 01 00 00 00 	movl   $0x1,(%esp)
 8049341:	e8 cb fe ff ff       	call   8049211 <send_msg>
 8049346:	83 3d ec c7 04 08 06 	cmpl   $0x6,0x804c7ec
 804934d:	0f 85 9a 00 00 00    	jne    80493ed <phase_defused+0xc7>
 8049353:	8d 45 a4             	lea    -0x5c(%ebp),%eax
 8049356:	89 44 24 10          	mov    %eax,0x10(%esp)
 804935a:	8d 45 9c             	lea    -0x64(%ebp),%eax
 804935d:	89 44 24 0c          	mov    %eax,0xc(%esp)
 8049361:	8d 45 a0             	lea    -0x60(%ebp),%eax
 8049364:	89 44 24 08          	mov    %eax,0x8(%esp)
 8049368:	c7 44 24 04 0e a6 04 	movl   $0x804a60e,0x4(%esp)
 804936f:	08 
 8049370:	c7 04 24 f0 c8 04 08 	movl   $0x804c8f0,(%esp)
 8049377:	e8 18 f5 ff ff       	call   8048894 <__isoc99_sscanf@plt>
 804937c:	83 f8 03             	cmp    $0x3,%eax
 804937f:	75 44                	jne    80493c5 <phase_defused+0x9f>
 8049381:	c7 44 24 04 17 a6 04 	movl   $0x804a617,0x4(%esp)
 8049388:	08 
 8049389:	8d 45 a4             	lea    -0x5c(%ebp),%eax
 804938c:	89 04 24             	mov    %eax,(%esp)
 804938f:	e8 e7 fd ff ff       	call   804917b <strings_not_equal>
 8049394:	85 c0                	test   %eax,%eax
 8049396:	75 2d                	jne    80493c5 <phase_defused+0x9f>
 8049398:	c7 44 24 04 10 ab 04 	movl   $0x804ab10,0x4(%esp)
 804939f:	08 
 80493a0:	c7 04 24 01 00 00 00 	movl   $0x1,(%esp)
 80493a7:	e8 f8 f4 ff ff       	call   80488a4 <__printf_chk@plt>
 80493ac:	c7 44 24 04 38 ab 04 	movl   $0x804ab38,0x4(%esp)
 80493b3:	08 
 80493b4:	c7 04 24 01 00 00 00 	movl   $0x1,(%esp)
 80493bb:	e8 e4 f4 ff ff       	call   80488a4 <__printf_chk@plt>
 80493c0:	e8 72 f9 ff ff       	call   8048d37 <secret_phase>
 80493c5:	c7 44 24 04 70 ab 04 	movl   $0x804ab70,0x4(%esp)
 80493cc:	08 
 80493cd:	c7 04 24 01 00 00 00 	movl   $0x1,(%esp)
 80493d4:	e8 cb f4 ff ff       	call   80488a4 <__printf_chk@plt>
 80493d9:	c7 44 24 04 9c ab 04 	movl   $0x804ab9c,0x4(%esp)
 80493e0:	08 
 80493e1:	c7 04 24 01 00 00 00 	movl   $0x1,(%esp)
 80493e8:	e8 b7 f4 ff ff       	call   80488a4 <__printf_chk@plt>
 80493ed:	8b 45 f4             	mov    -0xc(%ebp),%eax
 80493f0:	65 33 05 14 00 00 00 	xor    %gs:0x14,%eax
 80493f7:	74 05                	je     80493fe <phase_defused+0xd8>
 80493f9:	e8 a6 f5 ff ff       	call   80489a4 <__stack_chk_fail@plt>
 80493fe:	c9                   	leave  
 80493ff:	90                   	nop
 8049400:	c3                   	ret    

08049401 <explode_bomb>:
 8049401:	55                   	push   %ebp
 8049402:	89 e5                	mov    %esp,%ebp
 8049404:	83 ec 18             	sub    $0x18,%esp
 8049407:	c7 44 24 04 1e a6 04 	movl   $0x804a61e,0x4(%esp)
 804940e:	08 
 804940f:	c7 04 24 01 00 00 00 	movl   $0x1,(%esp)
 8049416:	e8 89 f4 ff ff       	call   80488a4 <__printf_chk@plt>
 804941b:	c7 44 24 04 28 a6 04 	movl   $0x804a628,0x4(%esp)
 8049422:	08 
 8049423:	c7 04 24 01 00 00 00 	movl   $0x1,(%esp)
 804942a:	e8 75 f4 ff ff       	call   80488a4 <__printf_chk@plt>
 804942f:	c7 04 24 00 00 00 00 	movl   $0x0,(%esp)
 8049436:	e8 d6 fd ff ff       	call   8049211 <send_msg>
 804943b:	c7 44 24 04 e0 ab 04 	movl   $0x804abe0,0x4(%esp)
 8049442:	08 
 8049443:	c7 04 24 01 00 00 00 	movl   $0x1,(%esp)
 804944a:	e8 55 f4 ff ff       	call   80488a4 <__printf_chk@plt>
 804944f:	c7 04 24 08 00 00 00 	movl   $0x8,(%esp)
 8049456:	e8 a9 f5 ff ff       	call   8048a04 <exit@plt>

0804945b <read_six_numbers>:
 804945b:	55                   	push   %ebp
 804945c:	89 e5                	mov    %esp,%ebp
 804945e:	83 ec 28             	sub    $0x28,%esp
 8049461:	8b 45 0c             	mov    0xc(%ebp),%eax
 8049464:	8d 50 14             	lea    0x14(%eax),%edx
 8049467:	89 54 24 1c          	mov    %edx,0x1c(%esp)
 804946b:	8d 50 10             	lea    0x10(%eax),%edx
 804946e:	89 54 24 18          	mov    %edx,0x18(%esp)
 8049472:	8d 50 0c             	lea    0xc(%eax),%edx
 8049475:	89 54 24 14          	mov    %edx,0x14(%esp)
 8049479:	8d 50 08             	lea    0x8(%eax),%edx
 804947c:	89 54 24 10          	mov    %edx,0x10(%esp)
 8049480:	8d 50 04             	lea    0x4(%eax),%edx
 8049483:	89 54 24 0c          	mov    %edx,0xc(%esp)
 8049487:	89 44 24 08          	mov    %eax,0x8(%esp)
 804948b:	c7 44 24 04 40 a6 04 	movl   $0x804a640,0x4(%esp)
 8049492:	08 
 8049493:	8b 45 08             	mov    0x8(%ebp),%eax
 8049496:	89 04 24             	mov    %eax,(%esp)
 8049499:	e8 f6 f3 ff ff       	call   8048894 <__isoc99_sscanf@plt>
 804949e:	83 f8 05             	cmp    $0x5,%eax
 80494a1:	7f 05                	jg     80494a8 <read_six_numbers+0x4d>
 80494a3:	e8 59 ff ff ff       	call   8049401 <explode_bomb>
 80494a8:	c9                   	leave  
 80494a9:	c3                   	ret    

080494aa <blank_line>:
 80494aa:	55                   	push   %ebp
 80494ab:	89 e5                	mov    %esp,%ebp
 80494ad:	56                   	push   %esi
 80494ae:	53                   	push   %ebx
 80494af:	8b 75 08             	mov    0x8(%ebp),%esi
 80494b2:	eb 1b                	jmp    80494cf <blank_line+0x25>
 80494b4:	e8 8b f4 ff ff       	call   8048944 <__ctype_b_loc@plt>
 80494b9:	0f be db             	movsbl %bl,%ebx
 80494bc:	8b 00                	mov    (%eax),%eax
 80494be:	f6 44 58 01 20       	testb  $0x20,0x1(%eax,%ebx,2)
 80494c3:	75 07                	jne    80494cc <blank_line+0x22>
 80494c5:	b8 00 00 00 00       	mov    $0x0,%eax
 80494ca:	eb 0f                	jmp    80494db <blank_line+0x31>
 80494cc:	83 c6 01             	add    $0x1,%esi
 80494cf:	0f b6 1e             	movzbl (%esi),%ebx
 80494d2:	84 db                	test   %bl,%bl
 80494d4:	75 de                	jne    80494b4 <blank_line+0xa>
 80494d6:	b8 01 00 00 00       	mov    $0x1,%eax
 80494db:	5b                   	pop    %ebx
 80494dc:	5e                   	pop    %esi
 80494dd:	5d                   	pop    %ebp
 80494de:	c3                   	ret    

080494df <skip>:
 80494df:	55                   	push   %ebp
 80494e0:	89 e5                	mov    %esp,%ebp
 80494e2:	53                   	push   %ebx
 80494e3:	83 ec 14             	sub    $0x14,%esp
 80494e6:	a1 f0 c7 04 08       	mov    0x804c7f0,%eax
 80494eb:	89 44 24 08          	mov    %eax,0x8(%esp)
 80494ef:	c7 44 24 04 50 00 00 	movl   $0x50,0x4(%esp)
 80494f6:	00 
 80494f7:	a1 ec c7 04 08       	mov    0x804c7ec,%eax
 80494fc:	8d 04 80             	lea    (%eax,%eax,4),%eax
 80494ff:	c1 e0 04             	shl    $0x4,%eax
 8049502:	05 00 c8 04 08       	add    $0x804c800,%eax
 8049507:	89 04 24             	mov    %eax,(%esp)
 804950a:	e8 c5 f3 ff ff       	call   80488d4 <fgets@plt>
 804950f:	89 c3                	mov    %eax,%ebx
 8049511:	85 c0                	test   %eax,%eax
 8049513:	74 0c                	je     8049521 <skip+0x42>
 8049515:	89 04 24             	mov    %eax,(%esp)
 8049518:	e8 8d ff ff ff       	call   80494aa <blank_line>
 804951d:	85 c0                	test   %eax,%eax
 804951f:	75 c5                	jne    80494e6 <skip+0x7>
 8049521:	89 d8                	mov    %ebx,%eax
 8049523:	83 c4 14             	add    $0x14,%esp
 8049526:	5b                   	pop    %ebx
 8049527:	5d                   	pop    %ebp
 8049528:	c3                   	ret    

08049529 <read_line>:
 8049529:	55                   	push   %ebp
 804952a:	89 e5                	mov    %esp,%ebp
 804952c:	83 ec 28             	sub    $0x28,%esp
 804952f:	89 5d f4             	mov    %ebx,-0xc(%ebp)
 8049532:	89 75 f8             	mov    %esi,-0x8(%ebp)
 8049535:	89 7d fc             	mov    %edi,-0x4(%ebp)
 8049538:	e8 a2 ff ff ff       	call   80494df <skip>
 804953d:	85 c0                	test   %eax,%eax
 804953f:	75 7c                	jne    80495bd <read_line+0x94>
 8049541:	a1 f0 c7 04 08       	mov    0x804c7f0,%eax
 8049546:	3b 05 c4 c7 04 08    	cmp    0x804c7c4,%eax
 804954c:	75 20                	jne    804956e <read_line+0x45>
 804954e:	c7 44 24 04 04 ac 04 	movl   $0x804ac04,0x4(%esp)
 8049555:	08 
 8049556:	c7 04 24 01 00 00 00 	movl   $0x1,(%esp)
 804955d:	e8 42 f3 ff ff       	call   80488a4 <__printf_chk@plt>
 8049562:	c7 04 24 08 00 00 00 	movl   $0x8,(%esp)
 8049569:	e8 96 f4 ff ff       	call   8048a04 <exit@plt>
 804956e:	c7 04 24 52 a6 04 08 	movl   $0x804a652,(%esp)
 8049575:	e8 3a f3 ff ff       	call   80488b4 <getenv@plt>
 804957a:	85 c0                	test   %eax,%eax
 804957c:	74 0c                	je     804958a <read_line+0x61>
 804957e:	c7 04 24 00 00 00 00 	movl   $0x0,(%esp)
 8049585:	e8 7a f4 ff ff       	call   8048a04 <exit@plt>
 804958a:	a1 c4 c7 04 08       	mov    0x804c7c4,%eax
 804958f:	a3 f0 c7 04 08       	mov    %eax,0x804c7f0
 8049594:	e8 46 ff ff ff       	call   80494df <skip>
 8049599:	85 c0                	test   %eax,%eax
 804959b:	75 20                	jne    80495bd <read_line+0x94>
 804959d:	c7 44 24 04 04 ac 04 	movl   $0x804ac04,0x4(%esp)
 80495a4:	08 
 80495a5:	c7 04 24 01 00 00 00 	movl   $0x1,(%esp)
 80495ac:	e8 f3 f2 ff ff       	call   80488a4 <__printf_chk@plt>
 80495b1:	c7 04 24 00 00 00 00 	movl   $0x0,(%esp)
 80495b8:	e8 47 f4 ff ff       	call   8048a04 <exit@plt>
 80495bd:	be 00 c8 04 08       	mov    $0x804c800,%esi
 80495c2:	a1 ec c7 04 08       	mov    0x804c7ec,%eax
 80495c7:	8d 04 80             	lea    (%eax,%eax,4),%eax
 80495ca:	c1 e0 04             	shl    $0x4,%eax
 80495cd:	8d b8 00 c8 04 08    	lea    0x804c800(%eax),%edi
 80495d3:	b8 00 00 00 00       	mov    $0x0,%eax
 80495d8:	b9 ff ff ff ff       	mov    $0xffffffff,%ecx
 80495dd:	f2 ae                	repnz scas %es:(%edi),%al
 80495df:	f7 d1                	not    %ecx
 80495e1:	8d 59 ff             	lea    -0x1(%ecx),%ebx
 80495e4:	83 fb 4e             	cmp    $0x4e,%ebx
 80495e7:	7e 4b                	jle    8049634 <read_line+0x10b>
 80495e9:	c7 44 24 04 5d a6 04 	movl   $0x804a65d,0x4(%esp)
 80495f0:	08 
 80495f1:	c7 04 24 01 00 00 00 	movl   $0x1,(%esp)
 80495f8:	e8 a7 f2 ff ff       	call   80488a4 <__printf_chk@plt>
 80495fd:	a1 ec c7 04 08       	mov    0x804c7ec,%eax
 8049602:	8d 50 01             	lea    0x1(%eax),%edx
 8049605:	89 15 ec c7 04 08    	mov    %edx,0x804c7ec
 804960b:	8d 04 80             	lea    (%eax,%eax,4),%eax
 804960e:	c1 e0 04             	shl    $0x4,%eax
 8049611:	8d 04 06             	lea    (%esi,%eax,1),%eax
 8049614:	c7 00 2a 2a 2a 74    	movl   $0x742a2a2a,(%eax)
 804961a:	c7 40 04 72 75 6e 63 	movl   $0x636e7572,0x4(%eax)
 8049621:	c7 40 08 61 74 65 64 	movl   $0x64657461,0x8(%eax)
 8049628:	c7 40 0c 2a 2a 2a 00 	movl   $0x2a2a2a,0xc(%eax)
 804962f:	e8 cd fd ff ff       	call   8049401 <explode_bomb>
 8049634:	8b 15 ec c7 04 08    	mov    0x804c7ec,%edx
 804963a:	8d 04 92             	lea    (%edx,%edx,4),%eax
 804963d:	c1 e0 04             	shl    $0x4,%eax
 8049640:	c6 84 03 ff c7 04 08 	movb   $0x0,0x804c7ff(%ebx,%eax,1)
 8049647:	00 
 8049648:	83 c2 01             	add    $0x1,%edx
 804964b:	89 15 ec c7 04 08    	mov    %edx,0x804c7ec
 8049651:	8d 04 06             	lea    (%esi,%eax,1),%eax
 8049654:	8b 5d f4             	mov    -0xc(%ebp),%ebx
 8049657:	8b 75 f8             	mov    -0x8(%ebp),%esi
 804965a:	8b 7d fc             	mov    -0x4(%ebp),%edi
 804965d:	89 ec                	mov    %ebp,%esp
 804965f:	5d                   	pop    %ebp
 8049660:	c3                   	ret    

08049661 <initialize_bomb>:
 8049661:	55                   	push   %ebp
 8049662:	89 e5                	mov    %esp,%ebp
 8049664:	57                   	push   %edi
 8049665:	56                   	push   %esi
 8049666:	53                   	push   %ebx
 8049667:	81 ec 6c 20 00 00    	sub    $0x206c,%esp
 804966d:	65 a1 14 00 00 00    	mov    %gs:0x14,%eax
 8049673:	89 45 e4             	mov    %eax,-0x1c(%ebp)
 8049676:	31 c0                	xor    %eax,%eax
 8049678:	c7 44 24 04 4d 97 04 	movl   $0x804974d,0x4(%esp)
 804967f:	08 
 8049680:	c7 04 24 02 00 00 00 	movl   $0x2,(%esp)
 8049687:	e8 e8 f1 ff ff       	call   8048874 <signal@plt>
 804968c:	c7 44 24 04 40 00 00 	movl   $0x40,0x4(%esp)
 8049693:	00 
 8049694:	8d 45 a4             	lea    -0x5c(%ebp),%eax
 8049697:	89 04 24             	mov    %eax,(%esp)
 804969a:	e8 15 f3 ff ff       	call   80489b4 <gethostname@plt>
 804969f:	85 c0                	test   %eax,%eax
 80496a1:	75 18                	jne    80496bb <initialize_bomb+0x5a>
 80496a3:	a1 c0 c5 04 08       	mov    0x804c5c0,%eax
 80496a8:	bb 00 00 00 00       	mov    $0x0,%ebx
 80496ad:	8d 75 a4             	lea    -0x5c(%ebp),%esi
 80496b0:	bf c0 c5 04 08       	mov    $0x804c5c0,%edi
 80496b5:	85 c0                	test   %eax,%eax
 80496b7:	75 22                	jne    80496db <initialize_bomb+0x7a>
 80496b9:	eb 3a                	jmp    80496f5 <initialize_bomb+0x94>
 80496bb:	c7 44 24 04 24 ac 04 	movl   $0x804ac24,0x4(%esp)
 80496c2:	08 
 80496c3:	c7 04 24 01 00 00 00 	movl   $0x1,(%esp)
 80496ca:	e8 d5 f1 ff ff       	call   80488a4 <__printf_chk@plt>
 80496cf:	c7 04 24 08 00 00 00 	movl   $0x8,(%esp)
 80496d6:	e8 29 f3 ff ff       	call   8048a04 <exit@plt>
 80496db:	89 74 24 04          	mov    %esi,0x4(%esp)
 80496df:	89 04 24             	mov    %eax,(%esp)
 80496e2:	e8 9d f2 ff ff       	call   8048984 <strcasecmp@plt>
 80496e7:	85 c0                	test   %eax,%eax
 80496e9:	74 0a                	je     80496f5 <initialize_bomb+0x94>
 80496eb:	83 c3 01             	add    $0x1,%ebx
 80496ee:	8b 04 9f             	mov    (%edi,%ebx,4),%eax
 80496f1:	85 c0                	test   %eax,%eax
 80496f3:	75 e6                	jne    80496db <initialize_bomb+0x7a>
 80496f5:	8d 85 a4 df ff ff    	lea    -0x205c(%ebp),%eax
 80496fb:	89 04 24             	mov    %eax,(%esp)
 80496fe:	e8 48 02 00 00       	call   804994b <init_driver>
 8049703:	85 c0                	test   %eax,%eax
 8049705:	79 2a                	jns    8049731 <initialize_bomb+0xd0>
 8049707:	8d 85 a4 df ff ff    	lea    -0x205c(%ebp),%eax
 804970d:	89 44 24 08          	mov    %eax,0x8(%esp)
 8049711:	c7 44 24 04 79 a6 04 	movl   $0x804a679,0x4(%esp)
 8049718:	08 
 8049719:	c7 04 24 01 00 00 00 	movl   $0x1,(%esp)
 8049720:	e8 7f f1 ff ff       	call   80488a4 <__printf_chk@plt>
 8049725:	c7 04 24 08 00 00 00 	movl   $0x8,(%esp)
 804972c:	e8 d3 f2 ff ff       	call   8048a04 <exit@plt>
 8049731:	8b 45 e4             	mov    -0x1c(%ebp),%eax
 8049734:	65 33 05 14 00 00 00 	xor    %gs:0x14,%eax
 804973b:	74 05                	je     8049742 <initialize_bomb+0xe1>
 804973d:	e8 62 f2 ff ff       	call   80489a4 <__stack_chk_fail@plt>
 8049742:	81 c4 6c 20 00 00    	add    $0x206c,%esp
 8049748:	5b                   	pop    %ebx
 8049749:	5e                   	pop    %esi
 804974a:	5f                   	pop    %edi
 804974b:	5d                   	pop    %ebp
 804974c:	c3                   	ret    

0804974d <sig_handler>:
 804974d:	55                   	push   %ebp
 804974e:	89 e5                	mov    %esp,%ebp
 8049750:	83 ec 18             	sub    $0x18,%esp
 8049753:	c7 44 24 04 5c ac 04 	movl   $0x804ac5c,0x4(%esp)
 804975a:	08 
 804975b:	c7 04 24 01 00 00 00 	movl   $0x1,(%esp)
 8049762:	e8 3d f1 ff ff       	call   80488a4 <__printf_chk@plt>
 8049767:	c7 04 24 03 00 00 00 	movl   $0x3,(%esp)
 804976e:	e8 51 f2 ff ff       	call   80489c4 <sleep@plt>
 8049773:	c7 44 24 04 93 a6 04 	movl   $0x804a693,0x4(%esp)
 804977a:	08 
 804977b:	c7 04 24 01 00 00 00 	movl   $0x1,(%esp)
 8049782:	e8 1d f1 ff ff       	call   80488a4 <__printf_chk@plt>
 8049787:	a1 e0 c7 04 08       	mov    0x804c7e0,%eax
 804978c:	89 04 24             	mov    %eax,(%esp)
 804978f:	e8 90 f1 ff ff       	call   8048924 <fflush@plt>
 8049794:	c7 04 24 01 00 00 00 	movl   $0x1,(%esp)
 804979b:	e8 24 f2 ff ff       	call   80489c4 <sleep@plt>
 80497a0:	c7 44 24 04 9b a6 04 	movl   $0x804a69b,0x4(%esp)
 80497a7:	08 
 80497a8:	c7 04 24 01 00 00 00 	movl   $0x1,(%esp)
 80497af:	e8 f0 f0 ff ff       	call   80488a4 <__printf_chk@plt>
 80497b4:	c7 04 24 10 00 00 00 	movl   $0x10,(%esp)
 80497bb:	e8 44 f2 ff ff       	call   8048a04 <exit@plt>

080497c0 <init_timeout>:
 80497c0:	55                   	push   %ebp
 80497c1:	89 e5                	mov    %esp,%ebp
 80497c3:	53                   	push   %ebx
 80497c4:	83 ec 14             	sub    $0x14,%esp
 80497c7:	8b 5d 08             	mov    0x8(%ebp),%ebx
 80497ca:	85 db                	test   %ebx,%ebx
 80497cc:	74 25                	je     80497f3 <init_timeout+0x33>
 80497ce:	c7 44 24 04 14 99 04 	movl   $0x8049914,0x4(%esp)
 80497d5:	08 
 80497d6:	c7 04 24 0e 00 00 00 	movl   $0xe,(%esp)
 80497dd:	e8 92 f0 ff ff       	call   8048874 <signal@plt>
 80497e2:	89 d8                	mov    %ebx,%eax
 80497e4:	c1 f8 1f             	sar    $0x1f,%eax
 80497e7:	f7 d0                	not    %eax
 80497e9:	21 c3                	and    %eax,%ebx
 80497eb:	89 1c 24             	mov    %ebx,(%esp)
 80497ee:	e8 71 f1 ff ff       	call   8048964 <alarm@plt>
 80497f3:	83 c4 14             	add    $0x14,%esp
 80497f6:	5b                   	pop    %ebx
 80497f7:	5d                   	pop    %ebp
 80497f8:	c3                   	ret    

080497f9 <rio_readlineb>:
 80497f9:	55                   	push   %ebp
 80497fa:	89 e5                	mov    %esp,%ebp
 80497fc:	57                   	push   %edi
 80497fd:	56                   	push   %esi
 80497fe:	53                   	push   %ebx
 80497ff:	83 ec 3c             	sub    $0x3c,%esp
 8049802:	89 c3                	mov    %eax,%ebx
 8049804:	89 4d c8             	mov    %ecx,-0x38(%ebp)
 8049807:	89 55 d0             	mov    %edx,-0x30(%ebp)
 804980a:	83 f9 01             	cmp    $0x1,%ecx
 804980d:	0f 86 cf 00 00 00    	jbe    80498e2 <rio_readlineb+0xe9>
 8049813:	8d 78 0c             	lea    0xc(%eax),%edi
 8049816:	89 7d d4             	mov    %edi,-0x2c(%ebp)
 8049819:	c7 45 cc 01 00 00 00 	movl   $0x1,-0x34(%ebp)
 8049820:	eb 3e                	jmp    8049860 <rio_readlineb+0x67>
 8049822:	c7 44 24 08 00 20 00 	movl   $0x2000,0x8(%esp)
 8049829:	00 
 804982a:	89 7c 24 04          	mov    %edi,0x4(%esp)
 804982e:	8b 03                	mov    (%ebx),%eax
 8049830:	89 04 24             	mov    %eax,(%esp)
 8049833:	e8 cc f0 ff ff       	call   8048904 <read@plt>
 8049838:	89 43 04             	mov    %eax,0x4(%ebx)
 804983b:	85 c0                	test   %eax,%eax
 804983d:	79 13                	jns    8049852 <rio_readlineb+0x59>
 804983f:	e8 00 f0 ff ff       	call   8048844 <__errno_location@plt>
 8049844:	83 38 04             	cmpl   $0x4,(%eax)
 8049847:	74 17                	je     8049860 <rio_readlineb+0x67>
 8049849:	be ff ff ff ff       	mov    $0xffffffff,%esi
 804984e:	66 90                	xchg   %ax,%ax
 8049850:	eb 5d                	jmp    80498af <rio_readlineb+0xb6>
 8049852:	85 c0                	test   %eax,%eax
 8049854:	0f 84 a0 00 00 00    	je     80498fa <rio_readlineb+0x101>
 804985a:	8b 45 d4             	mov    -0x2c(%ebp),%eax
 804985d:	89 43 08             	mov    %eax,0x8(%ebx)
 8049860:	8b 73 04             	mov    0x4(%ebx),%esi
 8049863:	85 f6                	test   %esi,%esi
 8049865:	7e bb                	jle    8049822 <rio_readlineb+0x29>
 8049867:	85 f6                	test   %esi,%esi
 8049869:	0f 85 92 00 00 00    	jne    8049901 <rio_readlineb+0x108>
 804986f:	c7 44 24 0c 01 00 00 	movl   $0x1,0xc(%esp)
 8049876:	00 
 8049877:	89 74 24 08          	mov    %esi,0x8(%esp)
 804987b:	8b 43 08             	mov    0x8(%ebx),%eax
 804987e:	89 44 24 04          	mov    %eax,0x4(%esp)
 8049882:	8d 55 e7             	lea    -0x19(%ebp),%edx
 8049885:	89 14 24             	mov    %edx,(%esp)
 8049888:	e8 67 f0 ff ff       	call   80488f4 <__memcpy_chk@plt>
 804988d:	01 73 08             	add    %esi,0x8(%ebx)
 8049890:	29 73 04             	sub    %esi,0x4(%ebx)
 8049893:	83 fe 01             	cmp    $0x1,%esi
 8049896:	75 17                	jne    80498af <rio_readlineb+0xb6>
 8049898:	0f b6 45 e7          	movzbl -0x19(%ebp),%eax
 804989c:	8b 55 d0             	mov    -0x30(%ebp),%edx
 804989f:	88 02                	mov    %al,(%edx)
 80498a1:	83 c2 01             	add    $0x1,%edx
 80498a4:	89 55 d0             	mov    %edx,-0x30(%ebp)
 80498a7:	80 7d e7 0a          	cmpb   $0xa,-0x19(%ebp)
 80498ab:	75 25                	jne    80498d2 <rio_readlineb+0xd9>
 80498ad:	eb 3a                	jmp    80498e9 <rio_readlineb+0xf0>
 80498af:	8b 45 cc             	mov    -0x34(%ebp),%eax
 80498b2:	85 f6                	test   %esi,%esi
 80498b4:	74 0c                	je     80498c2 <rio_readlineb+0xc9>
 80498b6:	c7 45 cc ff ff ff ff 	movl   $0xffffffff,-0x34(%ebp)
 80498bd:	8d 76 00             	lea    0x0(%esi),%esi
 80498c0:	eb 2d                	jmp    80498ef <rio_readlineb+0xf6>
 80498c2:	83 f8 01             	cmp    $0x1,%eax
 80498c5:	75 22                	jne    80498e9 <rio_readlineb+0xf0>
 80498c7:	c7 45 cc 00 00 00 00 	movl   $0x0,-0x34(%ebp)
 80498ce:	66 90                	xchg   %ax,%ax
 80498d0:	eb 1d                	jmp    80498ef <rio_readlineb+0xf6>
 80498d2:	83 45 cc 01          	addl   $0x1,-0x34(%ebp)
 80498d6:	8b 45 cc             	mov    -0x34(%ebp),%eax
 80498d9:	39 45 c8             	cmp    %eax,-0x38(%ebp)
 80498dc:	77 82                	ja     8049860 <rio_readlineb+0x67>
 80498de:	66 90                	xchg   %ax,%ax
 80498e0:	eb 07                	jmp    80498e9 <rio_readlineb+0xf0>
 80498e2:	c7 45 cc 01 00 00 00 	movl   $0x1,-0x34(%ebp)
 80498e9:	8b 55 d0             	mov    -0x30(%ebp),%edx
 80498ec:	c6 02 00             	movb   $0x0,(%edx)
 80498ef:	8b 45 cc             	mov    -0x34(%ebp),%eax
 80498f2:	83 c4 3c             	add    $0x3c,%esp
 80498f5:	5b                   	pop    %ebx
 80498f6:	5e                   	pop    %esi
 80498f7:	5f                   	pop    %edi
 80498f8:	5d                   	pop    %ebp
 80498f9:	c3                   	ret    
 80498fa:	be 00 00 00 00       	mov    $0x0,%esi
 80498ff:	eb ae                	jmp    80498af <rio_readlineb+0xb6>
 8049901:	8b 43 08             	mov    0x8(%ebx),%eax
 8049904:	0f b6 00             	movzbl (%eax),%eax
 8049907:	88 45 e7             	mov    %al,-0x19(%ebp)
 804990a:	83 43 08 01          	addl   $0x1,0x8(%ebx)
 804990e:	83 6b 04 01          	subl   $0x1,0x4(%ebx)
 8049912:	eb 84                	jmp    8049898 <rio_readlineb+0x9f>

08049914 <sigalrm_handler>:
 8049914:	55                   	push   %ebp
 8049915:	89 e5                	mov    %esp,%ebp
 8049917:	83 ec 18             	sub    $0x18,%esp
 804991a:	c7 44 24 0c 00 00 00 	movl   $0x0,0xc(%esp)
 8049921:	00 
 8049922:	c7 44 24 08 98 ac 04 	movl   $0x804ac98,0x8(%esp)
 8049929:	08 
 804992a:	c7 44 24 04 01 00 00 	movl   $0x1,0x4(%esp)
 8049931:	00 
 8049932:	a1 c0 c7 04 08       	mov    0x804c7c0,%eax
 8049937:	89 04 24             	mov    %eax,(%esp)
 804993a:	e8 25 ef ff ff       	call   8048864 <__fprintf_chk@plt>
 804993f:	c7 04 24 01 00 00 00 	movl   $0x1,(%esp)
 8049946:	e8 b9 f0 ff ff       	call   8048a04 <exit@plt>

0804994b <init_driver>:
 804994b:	55                   	push   %ebp
 804994c:	89 e5                	mov    %esp,%ebp
 804994e:	57                   	push   %edi
 804994f:	56                   	push   %esi
 8049950:	53                   	push   %ebx
 8049951:	83 ec 4c             	sub    $0x4c,%esp
 8049954:	8b 7d 08             	mov    0x8(%ebp),%edi
 8049957:	65 a1 14 00 00 00    	mov    %gs:0x14,%eax
 804995d:	89 45 e4             	mov    %eax,-0x1c(%ebp)
 8049960:	31 c0                	xor    %eax,%eax
 8049962:	c7 44 24 04 01 00 00 	movl   $0x1,0x4(%esp)
 8049969:	00 
 804996a:	c7 04 24 0d 00 00 00 	movl   $0xd,(%esp)
 8049971:	e8 fe ee ff ff       	call   8048874 <signal@plt>
 8049976:	c7 44 24 04 01 00 00 	movl   $0x1,0x4(%esp)
 804997d:	00 
 804997e:	c7 04 24 1d 00 00 00 	movl   $0x1d,(%esp)
 8049985:	e8 ea ee ff ff       	call   8048874 <signal@plt>
 804998a:	c7 44 24 04 01 00 00 	movl   $0x1,0x4(%esp)
 8049991:	00 
 8049992:	c7 04 24 1d 00 00 00 	movl   $0x1d,(%esp)
 8049999:	e8 d6 ee ff ff       	call   8048874 <signal@plt>
 804999e:	c7 44 24 08 00 00 00 	movl   $0x0,0x8(%esp)
 80499a5:	00 
 80499a6:	c7 44 24 04 01 00 00 	movl   $0x1,0x4(%esp)
 80499ad:	00 
 80499ae:	c7 04 24 02 00 00 00 	movl   $0x2,(%esp)
 80499b5:	e8 7a ef ff ff       	call   8048934 <socket@plt>
 80499ba:	89 c6                	mov    %eax,%esi
 80499bc:	85 c0                	test   %eax,%eax
 80499be:	79 4e                	jns    8049a0e <init_driver+0xc3>
 80499c0:	c7 07 45 72 72 6f    	movl   $0x6f727245,(%edi)
 80499c6:	c7 47 04 72 3a 20 43 	movl   $0x43203a72,0x4(%edi)
 80499cd:	c7 47 08 6c 69 65 6e 	movl   $0x6e65696c,0x8(%edi)
 80499d4:	c7 47 0c 74 20 75 6e 	movl   $0x6e752074,0xc(%edi)
 80499db:	c7 47 10 61 62 6c 65 	movl   $0x656c6261,0x10(%edi)
 80499e2:	c7 47 14 20 74 6f 20 	movl   $0x206f7420,0x14(%edi)
 80499e9:	c7 47 18 63 72 65 61 	movl   $0x61657263,0x18(%edi)
 80499f0:	c7 47 1c 74 65 20 73 	movl   $0x73206574,0x1c(%edi)
 80499f7:	c7 47 20 6f 63 6b 65 	movl   $0x656b636f,0x20(%edi)
 80499fe:	66 c7 47 24 74 00    	movw   $0x74,0x24(%edi)
 8049a04:	b8 ff ff ff ff       	mov    $0xffffffff,%eax
 8049a09:	e9 2a 01 00 00       	jmp    8049b38 <init_driver+0x1ed>
 8049a0e:	c7 04 24 a4 a6 04 08 	movl   $0x804a6a4,(%esp)
 8049a15:	e8 da ef ff ff       	call   80489f4 <gethostbyname@plt>
 8049a1a:	85 c0                	test   %eax,%eax
 8049a1c:	75 68                	jne    8049a86 <init_driver+0x13b>
 8049a1e:	c7 07 45 72 72 6f    	movl   $0x6f727245,(%edi)
 8049a24:	c7 47 04 72 3a 20 44 	movl   $0x44203a72,0x4(%edi)
 8049a2b:	c7 47 08 4e 53 20 69 	movl   $0x6920534e,0x8(%edi)
 8049a32:	c7 47 0c 73 20 75 6e 	movl   $0x6e752073,0xc(%edi)
 8049a39:	c7 47 10 61 62 6c 65 	movl   $0x656c6261,0x10(%edi)
 8049a40:	c7 47 14 20 74 6f 20 	movl   $0x206f7420,0x14(%edi)
 8049a47:	c7 47 18 72 65 73 6f 	movl   $0x6f736572,0x18(%edi)
 8049a4e:	c7 47 1c 6c 76 65 20 	movl   $0x2065766c,0x1c(%edi)
 8049a55:	c7 47 20 73 65 72 76 	movl   $0x76726573,0x20(%edi)
 8049a5c:	c7 47 24 65 72 20 61 	movl   $0x61207265,0x24(%edi)
 8049a63:	c7 47 28 64 64 72 65 	movl   $0x65726464,0x28(%edi)
 8049a6a:	66 c7 47 2c 73 73    	movw   $0x7373,0x2c(%edi)
 8049a70:	c6 47 2e 00          	movb   $0x0,0x2e(%edi)
 8049a74:	89 34 24             	mov    %esi,(%esp)
 8049a77:	e8 18 ef ff ff       	call   8048994 <close@plt>
 8049a7c:	b8 ff ff ff ff       	mov    $0xffffffff,%eax
 8049a81:	e9 b2 00 00 00       	jmp    8049b38 <init_driver+0x1ed>
 8049a86:	8d 5d d4             	lea    -0x2c(%ebp),%ebx
 8049a89:	c7 03 00 00 00 00    	movl   $0x0,(%ebx)
 8049a8f:	c7 43 04 00 00 00 00 	movl   $0x0,0x4(%ebx)
 8049a96:	c7 43 08 00 00 00 00 	movl   $0x0,0x8(%ebx)
 8049a9d:	c7 43 0c 00 00 00 00 	movl   $0x0,0xc(%ebx)
 8049aa4:	66 c7 45 d4 02 00    	movw   $0x2,-0x2c(%ebp)
 8049aaa:	c7 44 24 0c 0c 00 00 	movl   $0xc,0xc(%esp)
 8049ab1:	00 
 8049ab2:	8b 50 0c             	mov    0xc(%eax),%edx
 8049ab5:	89 54 24 08          	mov    %edx,0x8(%esp)
 8049ab9:	8b 40 10             	mov    0x10(%eax),%eax
 8049abc:	8b 00                	mov    (%eax),%eax
 8049abe:	89 44 24 04          	mov    %eax,0x4(%esp)
 8049ac2:	8d 45 d8             	lea    -0x28(%ebp),%eax
 8049ac5:	89 04 24             	mov    %eax,(%esp)
 8049ac8:	e8 17 ef ff ff       	call   80489e4 <__memmove_chk@plt>
 8049acd:	66 c7 45 d6 30 57    	movw   $0x5730,-0x2a(%ebp)
 8049ad3:	c7 44 24 08 10 00 00 	movl   $0x10,0x8(%esp)
 8049ada:	00 
 8049adb:	89 5c 24 04          	mov    %ebx,0x4(%esp)
 8049adf:	89 34 24             	mov    %esi,(%esp)
 8049ae2:	e8 6d ed ff ff       	call   8048854 <connect@plt>
 8049ae7:	85 c0                	test   %eax,%eax
 8049ae9:	79 37                	jns    8049b22 <init_driver+0x1d7>
 8049aeb:	c7 44 24 10 a4 a6 04 	movl   $0x804a6a4,0x10(%esp)
 8049af2:	08 
 8049af3:	c7 44 24 0c bc ac 04 	movl   $0x804acbc,0xc(%esp)
 8049afa:	08 
 8049afb:	c7 44 24 08 ff ff ff 	movl   $0xffffffff,0x8(%esp)
 8049b02:	ff 
 8049b03:	c7 44 24 04 01 00 00 	movl   $0x1,0x4(%esp)
 8049b0a:	00 
 8049b0b:	89 3c 24             	mov    %edi,(%esp)
 8049b0e:	e8 c1 ee ff ff       	call   80489d4 <__sprintf_chk@plt>
 8049b13:	89 34 24             	mov    %esi,(%esp)
 8049b16:	e8 79 ee ff ff       	call   8048994 <close@plt>
 8049b1b:	b8 ff ff ff ff       	mov    $0xffffffff,%eax
 8049b20:	eb 16                	jmp    8049b38 <init_driver+0x1ed>
 8049b22:	89 34 24             	mov    %esi,(%esp)
 8049b25:	e8 6a ee ff ff       	call   8048994 <close@plt>
 8049b2a:	66 c7 07 4f 4b       	movw   $0x4b4f,(%edi)
 8049b2f:	c6 47 02 00          	movb   $0x0,0x2(%edi)
 8049b33:	b8 00 00 00 00       	mov    $0x0,%eax
 8049b38:	8b 55 e4             	mov    -0x1c(%ebp),%edx
 8049b3b:	65 33 15 14 00 00 00 	xor    %gs:0x14,%edx
 8049b42:	74 05                	je     8049b49 <init_driver+0x1fe>
 8049b44:	e8 5b ee ff ff       	call   80489a4 <__stack_chk_fail@plt>
 8049b49:	83 c4 4c             	add    $0x4c,%esp
 8049b4c:	5b                   	pop    %ebx
 8049b4d:	5e                   	pop    %esi
 8049b4e:	5f                   	pop    %edi
 8049b4f:	5d                   	pop    %ebp
 8049b50:	c3                   	ret    

08049b51 <submitr>:
 8049b51:	55                   	push   %ebp
 8049b52:	89 e5                	mov    %esp,%ebp
 8049b54:	57                   	push   %edi
 8049b55:	56                   	push   %esi
 8049b56:	53                   	push   %ebx
 8049b57:	81 ec 7c a0 00 00    	sub    $0xa07c,%esp
 8049b5d:	8b 5d 08             	mov    0x8(%ebp),%ebx
 8049b60:	8b 45 10             	mov    0x10(%ebp),%eax
 8049b63:	89 85 a4 5f ff ff    	mov    %eax,-0xa05c(%ebp)
 8049b69:	8b 55 14             	mov    0x14(%ebp),%edx
 8049b6c:	89 95 a0 5f ff ff    	mov    %edx,-0xa060(%ebp)
 8049b72:	8b 4d 18             	mov    0x18(%ebp),%ecx
 8049b75:	89 8d 9c 5f ff ff    	mov    %ecx,-0xa064(%ebp)
 8049b7b:	8b 75 1c             	mov    0x1c(%ebp),%esi
 8049b7e:	89 b5 a8 5f ff ff    	mov    %esi,-0xa058(%ebp)
 8049b84:	8b 7d 20             	mov    0x20(%ebp),%edi
 8049b87:	89 bd b0 5f ff ff    	mov    %edi,-0xa050(%ebp)
 8049b8d:	65 a1 14 00 00 00    	mov    %gs:0x14,%eax
 8049b93:	89 45 e4             	mov    %eax,-0x1c(%ebp)
 8049b96:	31 c0                	xor    %eax,%eax
 8049b98:	c7 85 bc 5f ff ff 00 	movl   $0x0,-0xa044(%ebp)
 8049b9f:	00 00 00 
 8049ba2:	c7 44 24 08 00 00 00 	movl   $0x0,0x8(%esp)
 8049ba9:	00 
 8049baa:	c7 44 24 04 01 00 00 	movl   $0x1,0x4(%esp)
 8049bb1:	00 
 8049bb2:	c7 04 24 02 00 00 00 	movl   $0x2,(%esp)
 8049bb9:	e8 76 ed ff ff       	call   8048934 <socket@plt>
 8049bbe:	89 85 ac 5f ff ff    	mov    %eax,-0xa054(%ebp)
 8049bc4:	85 c0                	test   %eax,%eax
 8049bc6:	79 18                	jns    8049be0 <submitr+0x8f>
 8049bc8:	b8 e4 ac 04 08       	mov    $0x804ace4,%eax
 8049bcd:	b9 26 00 00 00       	mov    $0x26,%ecx
 8049bd2:	89 c6                	mov    %eax,%esi
 8049bd4:	f3 a4                	rep movsb %ds:(%esi),%es:(%edi)
 8049bd6:	b8 ff ff ff ff       	mov    $0xffffffff,%eax
 8049bdb:	e9 d8 05 00 00       	jmp    804a1b8 <submitr+0x667>
 8049be0:	89 1c 24             	mov    %ebx,(%esp)
 8049be3:	e8 0c ee ff ff       	call   80489f4 <gethostbyname@plt>
 8049be8:	85 c0                	test   %eax,%eax
 8049bea:	75 2c                	jne    8049c18 <submitr+0xc7>
 8049bec:	b8 0c ad 04 08       	mov    $0x804ad0c,%eax
 8049bf1:	b9 2f 00 00 00       	mov    $0x2f,%ecx
 8049bf6:	8b bd b0 5f ff ff    	mov    -0xa050(%ebp),%edi
 8049bfc:	89 c6                	mov    %eax,%esi
 8049bfe:	f3 a4                	rep movsb %ds:(%esi),%es:(%edi)
 8049c00:	8b 85 ac 5f ff ff    	mov    -0xa054(%ebp),%eax
 8049c06:	89 04 24             	mov    %eax,(%esp)
 8049c09:	e8 86 ed ff ff       	call   8048994 <close@plt>
 8049c0e:	b8 ff ff ff ff       	mov    $0xffffffff,%eax
 8049c13:	e9 a0 05 00 00       	jmp    804a1b8 <submitr+0x667>
 8049c18:	8d 5d cc             	lea    -0x34(%ebp),%ebx
 8049c1b:	c7 03 00 00 00 00    	movl   $0x0,(%ebx)
 8049c21:	c7 43 04 00 00 00 00 	movl   $0x0,0x4(%ebx)
 8049c28:	c7 43 08 00 00 00 00 	movl   $0x0,0x8(%ebx)
 8049c2f:	c7 43 0c 00 00 00 00 	movl   $0x0,0xc(%ebx)
 8049c36:	66 c7 45 cc 02 00    	movw   $0x2,-0x34(%ebp)
 8049c3c:	c7 44 24 0c 0c 00 00 	movl   $0xc,0xc(%esp)
 8049c43:	00 
 8049c44:	8b 50 0c             	mov    0xc(%eax),%edx
 8049c47:	89 54 24 08          	mov    %edx,0x8(%esp)
 8049c4b:	8b 40 10             	mov    0x10(%eax),%eax
 8049c4e:	8b 00                	mov    (%eax),%eax
 8049c50:	89 44 24 04          	mov    %eax,0x4(%esp)
 8049c54:	8d 45 d0             	lea    -0x30(%ebp),%eax
 8049c57:	89 04 24             	mov    %eax,(%esp)
 8049c5a:	e8 85 ed ff ff       	call   80489e4 <__memmove_chk@plt>
 8049c5f:	0f b7 45 0c          	movzwl 0xc(%ebp),%eax
 8049c63:	66 c1 c8 08          	ror    $0x8,%ax
 8049c67:	66 89 45 ce          	mov    %ax,-0x32(%ebp)
 8049c6b:	c7 44 24 08 10 00 00 	movl   $0x10,0x8(%esp)
 8049c72:	00 
 8049c73:	89 5c 24 04          	mov    %ebx,0x4(%esp)
 8049c77:	8b 95 ac 5f ff ff    	mov    -0xa054(%ebp),%edx
 8049c7d:	89 14 24             	mov    %edx,(%esp)
 8049c80:	e8 cf eb ff ff       	call   8048854 <connect@plt>
 8049c85:	85 c0                	test   %eax,%eax
 8049c87:	79 2c                	jns    8049cb5 <submitr+0x164>
 8049c89:	b8 3c ad 04 08       	mov    $0x804ad3c,%eax
 8049c8e:	b9 27 00 00 00       	mov    $0x27,%ecx
 8049c93:	8b bd b0 5f ff ff    	mov    -0xa050(%ebp),%edi
 8049c99:	89 c6                	mov    %eax,%esi
 8049c9b:	f3 a4                	rep movsb %ds:(%esi),%es:(%edi)
 8049c9d:	8b 85 ac 5f ff ff    	mov    -0xa054(%ebp),%eax
 8049ca3:	89 04 24             	mov    %eax,(%esp)
 8049ca6:	e8 e9 ec ff ff       	call   8048994 <close@plt>
 8049cab:	b8 ff ff ff ff       	mov    $0xffffffff,%eax
 8049cb0:	e9 03 05 00 00       	jmp    804a1b8 <submitr+0x667>
 8049cb5:	ba ff ff ff ff       	mov    $0xffffffff,%edx
 8049cba:	8b bd a8 5f ff ff    	mov    -0xa058(%ebp),%edi
 8049cc0:	b8 00 00 00 00       	mov    $0x0,%eax
 8049cc5:	89 d1                	mov    %edx,%ecx
 8049cc7:	f2 ae                	repnz scas %es:(%edi),%al
 8049cc9:	89 cb                	mov    %ecx,%ebx
 8049ccb:	f7 d3                	not    %ebx
 8049ccd:	8b bd a4 5f ff ff    	mov    -0xa05c(%ebp),%edi
 8049cd3:	89 d1                	mov    %edx,%ecx
 8049cd5:	f2 ae                	repnz scas %es:(%edi),%al
 8049cd7:	89 8d b4 5f ff ff    	mov    %ecx,-0xa04c(%ebp)
 8049cdd:	8b bd a0 5f ff ff    	mov    -0xa060(%ebp),%edi
 8049ce3:	89 d1                	mov    %edx,%ecx
 8049ce5:	f2 ae                	repnz scas %es:(%edi),%al
 8049ce7:	89 ce                	mov    %ecx,%esi
 8049ce9:	f7 d6                	not    %esi
 8049ceb:	8b bd 9c 5f ff ff    	mov    -0xa064(%ebp),%edi
 8049cf1:	89 d1                	mov    %edx,%ecx
 8049cf3:	f2 ae                	repnz scas %es:(%edi),%al
 8049cf5:	2b b5 b4 5f ff ff    	sub    -0xa04c(%ebp),%esi
 8049cfb:	29 ce                	sub    %ecx,%esi
 8049cfd:	8d 44 5b fd          	lea    -0x3(%ebx,%ebx,2),%eax
 8049d01:	8d 44 06 7b          	lea    0x7b(%esi,%eax,1),%eax
 8049d05:	3d 00 20 00 00       	cmp    $0x2000,%eax
 8049d0a:	76 7f                	jbe    8049d8b <submitr+0x23a>
 8049d0c:	8b b5 b0 5f ff ff    	mov    -0xa050(%ebp),%esi
 8049d12:	c7 06 45 72 72 6f    	movl   $0x6f727245,(%esi)
 8049d18:	c7 46 04 72 3a 20 52 	movl   $0x52203a72,0x4(%esi)
 8049d1f:	c7 46 08 65 73 75 6c 	movl   $0x6c757365,0x8(%esi)
 8049d26:	c7 46 0c 74 20 73 74 	movl   $0x74732074,0xc(%esi)
 8049d2d:	c7 46 10 72 69 6e 67 	movl   $0x676e6972,0x10(%esi)
 8049d34:	c7 46 14 20 74 6f 6f 	movl   $0x6f6f7420,0x14(%esi)
 8049d3b:	c7 46 18 20 6c 61 72 	movl   $0x72616c20,0x18(%esi)
 8049d42:	c7 46 1c 67 65 2e 20 	movl   $0x202e6567,0x1c(%esi)
 8049d49:	c7 46 20 49 6e 63 72 	movl   $0x72636e49,0x20(%esi)
 8049d50:	c7 46 24 65 61 73 65 	movl   $0x65736165,0x24(%esi)
 8049d57:	c7 46 28 20 53 55 42 	movl   $0x42555320,0x28(%esi)
 8049d5e:	c7 46 2c 4d 49 54 52 	movl   $0x5254494d,0x2c(%esi)
 8049d65:	c7 46 30 5f 4d 41 58 	movl   $0x58414d5f,0x30(%esi)
 8049d6c:	c7 46 34 42 55 46 00 	movl   $0x465542,0x34(%esi)
 8049d73:	8b bd ac 5f ff ff    	mov    -0xa054(%ebp),%edi
 8049d79:	89 3c 24             	mov    %edi,(%esp)
 8049d7c:	e8 13 ec ff ff       	call   8048994 <close@plt>
 8049d81:	b8 ff ff ff ff       	mov    $0xffffffff,%eax
 8049d86:	e9 2d 04 00 00       	jmp    804a1b8 <submitr+0x667>
 8049d8b:	8d 95 cc bf ff ff    	lea    -0x4034(%ebp),%edx
 8049d91:	b9 00 08 00 00       	mov    $0x800,%ecx
 8049d96:	b8 00 00 00 00       	mov    $0x0,%eax
 8049d9b:	89 d7                	mov    %edx,%edi
 8049d9d:	f3 ab                	rep stos %eax,%es:(%edi)
 8049d9f:	8b bd a8 5f ff ff    	mov    -0xa058(%ebp),%edi
 8049da5:	b9 ff ff ff ff       	mov    $0xffffffff,%ecx
 8049daa:	f2 ae                	repnz scas %es:(%edi),%al
 8049dac:	f7 d1                	not    %ecx
 8049dae:	89 cf                	mov    %ecx,%edi
 8049db0:	83 ef 01             	sub    $0x1,%edi
 8049db3:	0f 84 14 04 00 00    	je     804a1cd <submitr+0x67c>
 8049db9:	89 d6                	mov    %edx,%esi
 8049dbb:	bb 00 00 00 00       	mov    $0x0,%ebx
 8049dc0:	89 bd b4 5f ff ff    	mov    %edi,-0xa04c(%ebp)
 8049dc6:	8b bd a8 5f ff ff    	mov    -0xa058(%ebp),%edi
 8049dcc:	0f b6 04 1f          	movzbl (%edi,%ebx,1),%eax
 8049dd0:	3c 2a                	cmp    $0x2a,%al
 8049dd2:	74 26                	je     8049dfa <submitr+0x2a9>
 8049dd4:	3c 2d                	cmp    $0x2d,%al
 8049dd6:	74 22                	je     8049dfa <submitr+0x2a9>
 8049dd8:	3c 2e                	cmp    $0x2e,%al
 8049dda:	74 1e                	je     8049dfa <submitr+0x2a9>
 8049ddc:	3c 5f                	cmp    $0x5f,%al
 8049dde:	66 90                	xchg   %ax,%ax
 8049de0:	74 18                	je     8049dfa <submitr+0x2a9>
 8049de2:	8d 50 d0             	lea    -0x30(%eax),%edx
 8049de5:	80 fa 09             	cmp    $0x9,%dl
 8049de8:	76 10                	jbe    8049dfa <submitr+0x2a9>
 8049dea:	8d 50 bf             	lea    -0x41(%eax),%edx
 8049ded:	80 fa 19             	cmp    $0x19,%dl
 8049df0:	76 08                	jbe    8049dfa <submitr+0x2a9>
 8049df2:	8d 50 9f             	lea    -0x61(%eax),%edx
 8049df5:	80 fa 19             	cmp    $0x19,%dl
 8049df8:	77 07                	ja     8049e01 <submitr+0x2b0>
 8049dfa:	88 06                	mov    %al,(%esi)
 8049dfc:	83 c6 01             	add    $0x1,%esi
 8049dff:	eb 59                	jmp    8049e5a <submitr+0x309>
 8049e01:	3c 20                	cmp    $0x20,%al
 8049e03:	75 08                	jne    8049e0d <submitr+0x2bc>
 8049e05:	c6 06 2b             	movb   $0x2b,(%esi)
 8049e08:	83 c6 01             	add    $0x1,%esi
 8049e0b:	eb 4d                	jmp    8049e5a <submitr+0x309>
 8049e0d:	8d 50 e0             	lea    -0x20(%eax),%edx
 8049e10:	80 fa 5f             	cmp    $0x5f,%dl
 8049e13:	76 04                	jbe    8049e19 <submitr+0x2c8>
 8049e15:	3c 09                	cmp    $0x9,%al
 8049e17:	75 55                	jne    8049e6e <submitr+0x31d>
 8049e19:	0f b6 c0             	movzbl %al,%eax
 8049e1c:	89 44 24 10          	mov    %eax,0x10(%esp)
 8049e20:	c7 44 24 0c c0 ae 04 	movl   $0x804aec0,0xc(%esp)
 8049e27:	08 
 8049e28:	c7 44 24 08 08 00 00 	movl   $0x8,0x8(%esp)
 8049e2f:	00 
 8049e30:	c7 44 24 04 01 00 00 	movl   $0x1,0x4(%esp)
 8049e37:	00 
 8049e38:	8d 45 dc             	lea    -0x24(%ebp),%eax
 8049e3b:	89 04 24             	mov    %eax,(%esp)
 8049e3e:	e8 91 eb ff ff       	call   80489d4 <__sprintf_chk@plt>
 8049e43:	0f b6 45 dc          	movzbl -0x24(%ebp),%eax
 8049e47:	88 06                	mov    %al,(%esi)
 8049e49:	0f b6 45 dd          	movzbl -0x23(%ebp),%eax
 8049e4d:	88 46 01             	mov    %al,0x1(%esi)
 8049e50:	0f b6 45 de          	movzbl -0x22(%ebp),%eax
 8049e54:	88 46 02             	mov    %al,0x2(%esi)
 8049e57:	83 c6 03             	add    $0x3,%esi
 8049e5a:	83 c3 01             	add    $0x1,%ebx
 8049e5d:	3b 9d b4 5f ff ff    	cmp    -0xa04c(%ebp),%ebx
 8049e63:	0f 85 63 ff ff ff    	jne    8049dcc <submitr+0x27b>
 8049e69:	e9 5f 03 00 00       	jmp    804a1cd <submitr+0x67c>
 8049e6e:	b8 64 ad 04 08       	mov    $0x804ad64,%eax
 8049e73:	b9 43 00 00 00       	mov    $0x43,%ecx
 8049e78:	8b bd b0 5f ff ff    	mov    -0xa050(%ebp),%edi
 8049e7e:	89 c6                	mov    %eax,%esi
 8049e80:	f3 a4                	rep movsb %ds:(%esi),%es:(%edi)
 8049e82:	8b 85 ac 5f ff ff    	mov    -0xa054(%ebp),%eax
 8049e88:	89 04 24             	mov    %eax,(%esp)
 8049e8b:	e8 04 eb ff ff       	call   8048994 <close@plt>
 8049e90:	b8 ff ff ff ff       	mov    $0xffffffff,%eax
 8049e95:	e9 1e 03 00 00       	jmp    804a1b8 <submitr+0x667>
 8049e9a:	01 c6                	add    %eax,%esi
 8049e9c:	89 5c 24 08          	mov    %ebx,0x8(%esp)
 8049ea0:	89 74 24 04          	mov    %esi,0x4(%esp)
 8049ea4:	89 3c 24             	mov    %edi,(%esp)
 8049ea7:	e8 18 ea ff ff       	call   80488c4 <write@plt>
 8049eac:	85 c0                	test   %eax,%eax
 8049eae:	7f 0f                	jg     8049ebf <submitr+0x36e>
 8049eb0:	e8 8f e9 ff ff       	call   8048844 <__errno_location@plt>
 8049eb5:	83 38 04             	cmpl   $0x4,(%eax)
 8049eb8:	75 13                	jne    8049ecd <submitr+0x37c>
 8049eba:	b8 00 00 00 00       	mov    $0x0,%eax
 8049ebf:	29 c3                	sub    %eax,%ebx
 8049ec1:	75 d7                	jne    8049e9a <submitr+0x349>
 8049ec3:	8b bd b4 5f ff ff    	mov    -0xa04c(%ebp),%edi
 8049ec9:	85 ff                	test   %edi,%edi
 8049ecb:	79 67                	jns    8049f34 <submitr+0x3e3>
 8049ecd:	8b bd b0 5f ff ff    	mov    -0xa050(%ebp),%edi
 8049ed3:	be a8 ad 04 08       	mov    $0x804ada8,%esi
 8049ed8:	b8 2c 00 00 00       	mov    $0x2c,%eax
 8049edd:	f7 c7 01 00 00 00    	test   $0x1,%edi
 8049ee3:	74 04                	je     8049ee9 <submitr+0x398>
 8049ee5:	a4                   	movsb  %ds:(%esi),%es:(%edi)
 8049ee6:	83 e8 01             	sub    $0x1,%eax
 8049ee9:	f7 c7 02 00 00 00    	test   $0x2,%edi
 8049eef:	74 05                	je     8049ef6 <submitr+0x3a5>
 8049ef1:	66 a5                	movsw  %ds:(%esi),%es:(%edi)
 8049ef3:	83 e8 02             	sub    $0x2,%eax
 8049ef6:	89 c1                	mov    %eax,%ecx
 8049ef8:	c1 e9 02             	shr    $0x2,%ecx
 8049efb:	f3 a5                	rep movsl %ds:(%esi),%es:(%edi)
 8049efd:	ba 00 00 00 00       	mov    $0x0,%edx
 8049f02:	a8 02                	test   $0x2,%al
 8049f04:	74 0b                	je     8049f11 <submitr+0x3c0>
 8049f06:	0f b7 0c 16          	movzwl (%esi,%edx,1),%ecx
 8049f0a:	66 89 0c 17          	mov    %cx,(%edi,%edx,1)
 8049f0e:	83 c2 02             	add    $0x2,%edx
 8049f11:	a8 01                	test   $0x1,%al
 8049f13:	74 07                	je     8049f1c <submitr+0x3cb>
 8049f15:	0f b6 04 16          	movzbl (%esi,%edx,1),%eax
 8049f19:	88 04 17             	mov    %al,(%edi,%edx,1)
 8049f1c:	8b 95 ac 5f ff ff    	mov    -0xa054(%ebp),%edx
 8049f22:	89 14 24             	mov    %edx,(%esp)
 8049f25:	e8 6a ea ff ff       	call   8048994 <close@plt>
 8049f2a:	b8 ff ff ff ff       	mov    $0xffffffff,%eax
 8049f2f:	e9 84 02 00 00       	jmp    804a1b8 <submitr+0x667>
 8049f34:	8b 8d ac 5f ff ff    	mov    -0xa054(%ebp),%ecx
 8049f3a:	89 8d c0 5f ff ff    	mov    %ecx,-0xa040(%ebp)
 8049f40:	c7 85 c4 5f ff ff 00 	movl   $0x0,-0xa03c(%ebp)
 8049f47:	00 00 00 
 8049f4a:	8d 85 c0 5f ff ff    	lea    -0xa040(%ebp),%eax
 8049f50:	8d 95 cc 5f ff ff    	lea    -0xa034(%ebp),%edx
 8049f56:	89 95 c8 5f ff ff    	mov    %edx,-0xa038(%ebp)
 8049f5c:	8d 95 cc df ff ff    	lea    -0x2034(%ebp),%edx
 8049f62:	b9 00 20 00 00       	mov    $0x2000,%ecx
 8049f67:	e8 8d f8 ff ff       	call   80497f9 <rio_readlineb>
 8049f6c:	85 c0                	test   %eax,%eax
 8049f6e:	7f 2c                	jg     8049f9c <submitr+0x44b>
 8049f70:	b8 d4 ad 04 08       	mov    $0x804add4,%eax
 8049f75:	b9 36 00 00 00       	mov    $0x36,%ecx
 8049f7a:	8b bd b0 5f ff ff    	mov    -0xa050(%ebp),%edi
 8049f80:	89 c6                	mov    %eax,%esi
 8049f82:	f3 a4                	rep movsb %ds:(%esi),%es:(%edi)
 8049f84:	8b 85 ac 5f ff ff    	mov    -0xa054(%ebp),%eax
 8049f8a:	89 04 24             	mov    %eax,(%esp)
 8049f8d:	e8 02 ea ff ff       	call   8048994 <close@plt>
 8049f92:	b8 ff ff ff ff       	mov    $0xffffffff,%eax
 8049f97:	e9 1c 02 00 00       	jmp    804a1b8 <submitr+0x667>
 8049f9c:	8d 85 cc 7f ff ff    	lea    -0x8034(%ebp),%eax
 8049fa2:	89 44 24 10          	mov    %eax,0x10(%esp)
 8049fa6:	8d 85 bc 5f ff ff    	lea    -0xa044(%ebp),%eax
 8049fac:	89 44 24 0c          	mov    %eax,0xc(%esp)
 8049fb0:	8d 85 cc 9f ff ff    	lea    -0x6034(%ebp),%eax
 8049fb6:	89 44 24 08          	mov    %eax,0x8(%esp)
 8049fba:	c7 44 24 04 c7 ae 04 	movl   $0x804aec7,0x4(%esp)
 8049fc1:	08 
 8049fc2:	8d 95 cc df ff ff    	lea    -0x2034(%ebp),%edx
 8049fc8:	89 14 24             	mov    %edx,(%esp)
 8049fcb:	e8 c4 e8 ff ff       	call   8048894 <__isoc99_sscanf@plt>
 8049fd0:	8b 85 bc 5f ff ff    	mov    -0xa044(%ebp),%eax
 8049fd6:	8d 9d cc df ff ff    	lea    -0x2034(%ebp),%ebx
 8049fdc:	8d b5 c0 5f ff ff    	lea    -0xa040(%ebp),%esi
 8049fe2:	3d c8 00 00 00       	cmp    $0xc8,%eax
 8049fe7:	0f 84 d3 00 00 00    	je     804a0c0 <submitr+0x56f>
 8049fed:	8d 95 cc 7f ff ff    	lea    -0x8034(%ebp),%edx
 8049ff3:	89 54 24 14          	mov    %edx,0x14(%esp)
 8049ff7:	89 44 24 10          	mov    %eax,0x10(%esp)
 8049ffb:	c7 44 24 0c 0c ae 04 	movl   $0x804ae0c,0xc(%esp)
 804a002:	08 
 804a003:	c7 44 24 08 ff ff ff 	movl   $0xffffffff,0x8(%esp)
 804a00a:	ff 
 804a00b:	c7 44 24 04 01 00 00 	movl   $0x1,0x4(%esp)
 804a012:	00 
 804a013:	8b 8d b0 5f ff ff    	mov    -0xa050(%ebp),%ecx
 804a019:	89 0c 24             	mov    %ecx,(%esp)
 804a01c:	e8 b3 e9 ff ff       	call   80489d4 <__sprintf_chk@plt>
 804a021:	8b b5 ac 5f ff ff    	mov    -0xa054(%ebp),%esi
 804a027:	89 34 24             	mov    %esi,(%esp)
 804a02a:	e8 65 e9 ff ff       	call   8048994 <close@plt>
 804a02f:	b8 ff ff ff ff       	mov    $0xffffffff,%eax
 804a034:	e9 7f 01 00 00       	jmp    804a1b8 <submitr+0x667>
 804a039:	b9 00 20 00 00       	mov    $0x2000,%ecx
 804a03e:	89 da                	mov    %ebx,%edx
 804a040:	89 f0                	mov    %esi,%eax
 804a042:	e8 b2 f7 ff ff       	call   80497f9 <rio_readlineb>
 804a047:	85 c0                	test   %eax,%eax
 804a049:	7f 75                	jg     804a0c0 <submitr+0x56f>
 804a04b:	8b bd b0 5f ff ff    	mov    -0xa050(%ebp),%edi
 804a051:	c7 07 45 72 72 6f    	movl   $0x6f727245,(%edi)
 804a057:	c7 47 04 72 3a 20 43 	movl   $0x43203a72,0x4(%edi)
 804a05e:	c7 47 08 6c 69 65 6e 	movl   $0x6e65696c,0x8(%edi)
 804a065:	c7 47 0c 74 20 75 6e 	movl   $0x6e752074,0xc(%edi)
 804a06c:	c7 47 10 61 62 6c 65 	movl   $0x656c6261,0x10(%edi)
 804a073:	c7 47 14 20 74 6f 20 	movl   $0x206f7420,0x14(%edi)
 804a07a:	c7 47 18 72 65 61 64 	movl   $0x64616572,0x18(%edi)
 804a081:	c7 47 1c 20 68 65 61 	movl   $0x61656820,0x1c(%edi)
 804a088:	c7 47 20 64 65 72 73 	movl   $0x73726564,0x20(%edi)
 804a08f:	c7 47 24 20 66 72 6f 	movl   $0x6f726620,0x24(%edi)
 804a096:	c7 47 28 6d 20 73 65 	movl   $0x6573206d,0x28(%edi)
 804a09d:	c7 47 2c 72 76 65 72 	movl   $0x72657672,0x2c(%edi)
 804a0a4:	c6 47 30 00          	movb   $0x0,0x30(%edi)
 804a0a8:	8b 85 ac 5f ff ff    	mov    -0xa054(%ebp),%eax
 804a0ae:	89 04 24             	mov    %eax,(%esp)
 804a0b1:	e8 de e8 ff ff       	call   8048994 <close@plt>
 804a0b6:	b8 ff ff ff ff       	mov    $0xffffffff,%eax
 804a0bb:	e9 f8 00 00 00       	jmp    804a1b8 <submitr+0x667>
 804a0c0:	b8 d8 ae 04 08       	mov    $0x804aed8,%eax
 804a0c5:	0f b6 13             	movzbl (%ebx),%edx
 804a0c8:	3a 10                	cmp    (%eax),%dl
 804a0ca:	0f 85 69 ff ff ff    	jne    804a039 <submitr+0x4e8>
 804a0d0:	0f b6 53 01          	movzbl 0x1(%ebx),%edx
 804a0d4:	3a 50 01             	cmp    0x1(%eax),%dl
 804a0d7:	0f 85 5c ff ff ff    	jne    804a039 <submitr+0x4e8>
 804a0dd:	0f b6 53 02          	movzbl 0x2(%ebx),%edx
 804a0e1:	3a 50 02             	cmp    0x2(%eax),%dl
 804a0e4:	0f 85 4f ff ff ff    	jne    804a039 <submitr+0x4e8>
 804a0ea:	8d 95 cc df ff ff    	lea    -0x2034(%ebp),%edx
 804a0f0:	8d 85 c0 5f ff ff    	lea    -0xa040(%ebp),%eax
 804a0f6:	b9 00 20 00 00       	mov    $0x2000,%ecx
 804a0fb:	e8 f9 f6 ff ff       	call   80497f9 <rio_readlineb>
 804a100:	85 c0                	test   %eax,%eax
 804a102:	7f 64                	jg     804a168 <submitr+0x617>
 804a104:	8b bd b0 5f ff ff    	mov    -0xa050(%ebp),%edi
 804a10a:	be 3c ae 04 08       	mov    $0x804ae3c,%esi
 804a10f:	b8 38 00 00 00       	mov    $0x38,%eax
 804a114:	f7 c7 01 00 00 00    	test   $0x1,%edi
 804a11a:	74 04                	je     804a120 <submitr+0x5cf>
 804a11c:	a4                   	movsb  %ds:(%esi),%es:(%edi)
 804a11d:	83 e8 01             	sub    $0x1,%eax
 804a120:	f7 c7 02 00 00 00    	test   $0x2,%edi
 804a126:	74 05                	je     804a12d <submitr+0x5dc>
 804a128:	66 a5                	movsw  %ds:(%esi),%es:(%edi)
 804a12a:	83 e8 02             	sub    $0x2,%eax
 804a12d:	89 c1                	mov    %eax,%ecx
 804a12f:	c1 e9 02             	shr    $0x2,%ecx
 804a132:	f3 a5                	rep movsl %ds:(%esi),%es:(%edi)
 804a134:	ba 00 00 00 00       	mov    $0x0,%edx
 804a139:	a8 02                	test   $0x2,%al
 804a13b:	74 0b                	je     804a148 <submitr+0x5f7>
 804a13d:	0f b7 0c 16          	movzwl (%esi,%edx,1),%ecx
 804a141:	66 89 0c 17          	mov    %cx,(%edi,%edx,1)
 804a145:	83 c2 02             	add    $0x2,%edx
 804a148:	a8 01                	test   $0x1,%al
 804a14a:	74 07                	je     804a153 <submitr+0x602>
 804a14c:	0f b6 04 16          	movzbl (%esi,%edx,1),%eax
 804a150:	88 04 17             	mov    %al,(%edi,%edx,1)
 804a153:	8b 95 ac 5f ff ff    	mov    -0xa054(%ebp),%edx
 804a159:	89 14 24             	mov    %edx,(%esp)
 804a15c:	e8 33 e8 ff ff       	call   8048994 <close@plt>
 804a161:	b8 ff ff ff ff       	mov    $0xffffffff,%eax
 804a166:	eb 50                	jmp    804a1b8 <submitr+0x667>
 804a168:	8d 8d cc df ff ff    	lea    -0x2034(%ebp),%ecx
 804a16e:	89 4c 24 04          	mov    %ecx,0x4(%esp)
 804a172:	8b b5 b0 5f ff ff    	mov    -0xa050(%ebp),%esi
 804a178:	89 34 24             	mov    %esi,(%esp)
 804a17b:	e8 f4 e7 ff ff       	call   8048974 <strcpy@plt>
 804a180:	8b bd ac 5f ff ff    	mov    -0xa054(%ebp),%edi
 804a186:	89 3c 24             	mov    %edi,(%esp)
 804a189:	e8 06 e8 ff ff       	call   8048994 <close@plt>
 804a18e:	b8 db ae 04 08       	mov    $0x804aedb,%eax
 804a193:	0f b6 0e             	movzbl (%esi),%ecx
 804a196:	3a 08                	cmp    (%eax),%cl
 804a198:	75 19                	jne    804a1b3 <submitr+0x662>
 804a19a:	0f b6 4e 01          	movzbl 0x1(%esi),%ecx
 804a19e:	3a 48 01             	cmp    0x1(%eax),%cl
 804a1a1:	75 10                	jne    804a1b3 <submitr+0x662>
 804a1a3:	0f b6 56 02          	movzbl 0x2(%esi),%edx
 804a1a7:	3a 50 02             	cmp    0x2(%eax),%dl
 804a1aa:	75 07                	jne    804a1b3 <submitr+0x662>
 804a1ac:	b8 00 00 00 00       	mov    $0x0,%eax
 804a1b1:	eb 05                	jmp    804a1b8 <submitr+0x667>
 804a1b3:	b8 ff ff ff ff       	mov    $0xffffffff,%eax
 804a1b8:	8b 55 e4             	mov    -0x1c(%ebp),%edx
 804a1bb:	65 33 15 14 00 00 00 	xor    %gs:0x14,%edx
 804a1c2:	0f 84 90 00 00 00    	je     804a258 <submitr+0x707>
 804a1c8:	e9 86 00 00 00       	jmp    804a253 <submitr+0x702>
 804a1cd:	8d 85 cc bf ff ff    	lea    -0x4034(%ebp),%eax
 804a1d3:	89 44 24 1c          	mov    %eax,0x1c(%esp)
 804a1d7:	8b 8d 9c 5f ff ff    	mov    -0xa064(%ebp),%ecx
 804a1dd:	89 4c 24 18          	mov    %ecx,0x18(%esp)
 804a1e1:	8b b5 a0 5f ff ff    	mov    -0xa060(%ebp),%esi
 804a1e7:	89 74 24 14          	mov    %esi,0x14(%esp)
 804a1eb:	8b bd a4 5f ff ff    	mov    -0xa05c(%ebp),%edi
 804a1f1:	89 7c 24 10          	mov    %edi,0x10(%esp)
 804a1f5:	c7 44 24 0c 74 ae 04 	movl   $0x804ae74,0xc(%esp)
 804a1fc:	08 
 804a1fd:	c7 44 24 08 00 20 00 	movl   $0x2000,0x8(%esp)
 804a204:	00 
 804a205:	c7 44 24 04 01 00 00 	movl   $0x1,0x4(%esp)
 804a20c:	00 
 804a20d:	8d 85 cc df ff ff    	lea    -0x2034(%ebp),%eax
 804a213:	89 04 24             	mov    %eax,(%esp)
 804a216:	e8 b9 e7 ff ff       	call   80489d4 <__sprintf_chk@plt>
 804a21b:	8d bd cc df ff ff    	lea    -0x2034(%ebp),%edi
 804a221:	b8 00 00 00 00       	mov    $0x0,%eax
 804a226:	b9 ff ff ff ff       	mov    $0xffffffff,%ecx
 804a22b:	f2 ae                	repnz scas %es:(%edi),%al
 804a22d:	f7 d1                	not    %ecx
 804a22f:	89 cf                	mov    %ecx,%edi
 804a231:	83 ef 01             	sub    $0x1,%edi
 804a234:	0f 84 fa fc ff ff    	je     8049f34 <submitr+0x3e3>
 804a23a:	89 fb                	mov    %edi,%ebx
 804a23c:	8d b5 cc df ff ff    	lea    -0x2034(%ebp),%esi
 804a242:	89 bd b4 5f ff ff    	mov    %edi,-0xa04c(%ebp)
 804a248:	8b bd ac 5f ff ff    	mov    -0xa054(%ebp),%edi
 804a24e:	e9 49 fc ff ff       	jmp    8049e9c <submitr+0x34b>
 804a253:	e8 4c e7 ff ff       	call   80489a4 <__stack_chk_fail@plt>
 804a258:	81 c4 7c a0 00 00    	add    $0xa07c,%esp
 804a25e:	5b                   	pop    %ebx
 804a25f:	5e                   	pop    %esi
 804a260:	5f                   	pop    %edi
 804a261:	5d                   	pop    %ebp
 804a262:	c3                   	ret    

0804a263 <driver_post>:
 804a263:	55                   	push   %ebp
 804a264:	89 e5                	mov    %esp,%ebp
 804a266:	53                   	push   %ebx
 804a267:	83 ec 24             	sub    $0x24,%esp
 804a26a:	8b 45 08             	mov    0x8(%ebp),%eax
 804a26d:	8b 55 0c             	mov    0xc(%ebp),%edx
 804a270:	8b 5d 14             	mov    0x14(%ebp),%ebx
 804a273:	83 7d 10 00          	cmpl   $0x0,0x10(%ebp)
 804a277:	74 28                	je     804a2a1 <driver_post+0x3e>
 804a279:	89 54 24 08          	mov    %edx,0x8(%esp)
 804a27d:	c7 44 24 04 de ae 04 	movl   $0x804aede,0x4(%esp)
 804a284:	08 
 804a285:	c7 04 24 01 00 00 00 	movl   $0x1,(%esp)
 804a28c:	e8 13 e6 ff ff       	call   80488a4 <__printf_chk@plt>
 804a291:	66 c7 03 4f 4b       	movw   $0x4b4f,(%ebx)
 804a296:	c6 43 02 00          	movb   $0x0,0x2(%ebx)
 804a29a:	b8 00 00 00 00       	mov    $0x0,%eax
 804a29f:	eb 49                	jmp    804a2ea <driver_post+0x87>
 804a2a1:	85 c0                	test   %eax,%eax
 804a2a3:	74 37                	je     804a2dc <driver_post+0x79>
 804a2a5:	80 38 00             	cmpb   $0x0,(%eax)
 804a2a8:	74 32                	je     804a2dc <driver_post+0x79>
 804a2aa:	89 5c 24 18          	mov    %ebx,0x18(%esp)
 804a2ae:	89 54 24 14          	mov    %edx,0x14(%esp)
 804a2b2:	c7 44 24 10 f5 ae 04 	movl   $0x804aef5,0x10(%esp)
 804a2b9:	08 
 804a2ba:	89 44 24 0c          	mov    %eax,0xc(%esp)
 804a2be:	c7 44 24 08 f9 ae 04 	movl   $0x804aef9,0x8(%esp)
 804a2c5:	08 
 804a2c6:	c7 44 24 04 57 30 00 	movl   $0x3057,0x4(%esp)
 804a2cd:	00 
 804a2ce:	c7 04 24 a4 a6 04 08 	movl   $0x804a6a4,(%esp)
 804a2d5:	e8 77 f8 ff ff       	call   8049b51 <submitr>
 804a2da:	eb 0e                	jmp    804a2ea <driver_post+0x87>
 804a2dc:	66 c7 03 4f 4b       	movw   $0x4b4f,(%ebx)
 804a2e1:	c6 43 02 00          	movb   $0x0,0x2(%ebx)
 804a2e5:	b8 00 00 00 00       	mov    $0x0,%eax
 804a2ea:	83 c4 24             	add    $0x24,%esp
 804a2ed:	5b                   	pop    %ebx
 804a2ee:	5d                   	pop    %ebp
 804a2ef:	c3                   	ret    

0804a2f0 <__libc_csu_fini>:
 804a2f0:	55                   	push   %ebp
 804a2f1:	89 e5                	mov    %esp,%ebp
 804a2f3:	5d                   	pop    %ebp
 804a2f4:	c3                   	ret    
 804a2f5:	8d 74 26 00          	lea    0x0(%esi,%eiz,1),%esi
 804a2f9:	8d bc 27 00 00 00 00 	lea    0x0(%edi,%eiz,1),%edi

0804a300 <__libc_csu_init>:
 804a300:	55                   	push   %ebp
 804a301:	89 e5                	mov    %esp,%ebp
 804a303:	57                   	push   %edi
 804a304:	56                   	push   %esi
 804a305:	53                   	push   %ebx
 804a306:	e8 4f 00 00 00       	call   804a35a <__i686.get_pc_thunk.bx>
 804a30b:	81 c3 e9 1c 00 00    	add    $0x1ce9,%ebx
 804a311:	83 ec 1c             	sub    $0x1c,%esp
 804a314:	e8 eb e4 ff ff       	call   8048804 <_init>
 804a319:	8d bb 18 ff ff ff    	lea    -0xe8(%ebx),%edi
 804a31f:	8d 83 18 ff ff ff    	lea    -0xe8(%ebx),%eax
 804a325:	29 c7                	sub    %eax,%edi
 804a327:	c1 ff 02             	sar    $0x2,%edi
 804a32a:	85 ff                	test   %edi,%edi
 804a32c:	74 24                	je     804a352 <__libc_csu_init+0x52>
 804a32e:	31 f6                	xor    %esi,%esi
 804a330:	8b 45 10             	mov    0x10(%ebp),%eax
 804a333:	89 44 24 08          	mov    %eax,0x8(%esp)
 804a337:	8b 45 0c             	mov    0xc(%ebp),%eax
 804a33a:	89 44 24 04          	mov    %eax,0x4(%esp)
 804a33e:	8b 45 08             	mov    0x8(%ebp),%eax
 804a341:	89 04 24             	mov    %eax,(%esp)
 804a344:	ff 94 b3 18 ff ff ff 	call   *-0xe8(%ebx,%esi,4)
 804a34b:	83 c6 01             	add    $0x1,%esi
 804a34e:	39 fe                	cmp    %edi,%esi
 804a350:	72 de                	jb     804a330 <__libc_csu_init+0x30>
 804a352:	83 c4 1c             	add    $0x1c,%esp
 804a355:	5b                   	pop    %ebx
 804a356:	5e                   	pop    %esi
 804a357:	5f                   	pop    %edi
 804a358:	5d                   	pop    %ebp
 804a359:	c3                   	ret    

0804a35a <__i686.get_pc_thunk.bx>:
 804a35a:	8b 1c 24             	mov    (%esp),%ebx
 804a35d:	c3                   	ret    
 804a35e:	90                   	nop
 804a35f:	90                   	nop

0804a360 <__do_global_ctors_aux>:
 804a360:	55                   	push   %ebp
 804a361:	89 e5                	mov    %esp,%ebp
 804a363:	53                   	push   %ebx
 804a364:	83 ec 04             	sub    $0x4,%esp
 804a367:	a1 0c bf 04 08       	mov    0x804bf0c,%eax
 804a36c:	83 f8 ff             	cmp    $0xffffffff,%eax
 804a36f:	74 13                	je     804a384 <__do_global_ctors_aux+0x24>
 804a371:	bb 0c bf 04 08       	mov    $0x804bf0c,%ebx
 804a376:	66 90                	xchg   %ax,%ax
 804a378:	83 eb 04             	sub    $0x4,%ebx
 804a37b:	ff d0                	call   *%eax
 804a37d:	8b 03                	mov    (%ebx),%eax
 804a37f:	83 f8 ff             	cmp    $0xffffffff,%eax
 804a382:	75 f4                	jne    804a378 <__do_global_ctors_aux+0x18>
 804a384:	83 c4 04             	add    $0x4,%esp
 804a387:	5b                   	pop    %ebx
 804a388:	5d                   	pop    %ebp
 804a389:	c3                   	ret    
 804a38a:	90                   	nop
 804a38b:	90                   	nop

Disassembly of section .fini:

0804a38c <_fini>:
 804a38c:	55                   	push   %ebp
 804a38d:	89 e5                	mov    %esp,%ebp
 804a38f:	53                   	push   %ebx
 804a390:	83 ec 04             	sub    $0x4,%esp
 804a393:	e8 00 00 00 00       	call   804a398 <_fini+0xc>
 804a398:	5b                   	pop    %ebx
 804a399:	81 c3 5c 1c 00 00    	add    $0x1c5c,%ebx
 804a39f:	e8 ac e6 ff ff       	call   8048a50 <__do_global_dtors_aux>
 804a3a4:	59                   	pop    %ecx
 804a3a5:	5b                   	pop    %ebx
 804a3a6:	c9                   	leave  
 804a3a7:	c3                   	ret    
